(lp1
(iProducts.DataCollector.plugins.DataMaps
RelationshipMap
p2
(dp3
S'maps'
p4
(lp5
(iProducts.DataCollector.plugins.DataMaps
ObjectMap
p6
(dp7
S'modname'
p8
S'Products.ZenModel.IpService'
p9
sS'compname'
p10
S'os'
p11
sS'monitor'
p12
I00
sS'setServiceClass'
p13
(dp14
S'protocol'
p15
S'udp'
p16
sS'port'
p17
I161
ssg17
I161
sS'classname'
p18
S''
sS'discoveryAgent'
p19
S'zenoss.snmp.IpServiceMap'
p20
sS'ipaddresses'
p21
(lp22
S'10.104.108.1'
p23
asg15
g16
sS'id'
p24
S'udp_00161'
p25
sS'_attrs'
p26
(lp27
g10
ag8
ag18
ag24
ag21
ag15
ag17
ag12
ag13
ag19
asba(iProducts.DataCollector.plugins.DataMaps
ObjectMap
p28
(dp29
g8
g9
sg10
g11
sg12
I00
sg13
(dp30
g15
g16
sg17
I1985
ssg17
I1985
sg18
S''
sg19
g20
sg21
(lp31
S'10.104.129.38'
p32
asg15
g16
sg24
S'udp_01985'
p33
sg26
(lp34
g10
ag8
ag18
ag24
ag21
ag15
ag17
ag12
ag13
ag19
asba(iProducts.DataCollector.plugins.DataMaps
ObjectMap
p35
(dp36
g8
g9
sg10
g11
sg12
I00
sg13
(dp37
g15
g16
sg17
I496
ssg17
I496
sg18
S''
sg19
g20
sg21
(lp38
S'224.0.1.40'
p39
asg15
g16
sg24
S'udp_00496'
p40
sg26
(lp41
g10
ag8
ag18
ag24
ag21
ag15
ag17
ag12
ag13
ag19
asba(iProducts.DataCollector.plugins.DataMaps
ObjectMap
p42
(dp43
g8
g9
sg10
g11
sg12
I00
sg13
(dp44
g15
g16
sg17
I1645
ssg17
I1645
sg18
S''
sg19
g20
sg21
(lp45
S'10.104.129.38'
p46
asg15
g16
sg24
S'udp_01645'
p47
sg26
(lp48
g10
ag8
ag18
ag24
ag21
ag15
ag17
ag12
ag13
ag19
asba(iProducts.DataCollector.plugins.DataMaps
ObjectMap
p49
(dp50
g8
g9
sg10
g11
sg12
I00
sg13
(dp51
g15
g16
sg17
I67
ssg17
I67
sg18
S''
sg19
g20
sg21
(lp52
S'10.104.129.38'
p53
asg15
g16
sg24
S'udp_00067'
p54
sg26
(lp55
g10
ag8
ag18
ag24
ag21
ag15
ag17
ag12
ag13
ag19
asba(iProducts.DataCollector.plugins.DataMaps
ObjectMap
p56
(dp57
g8
g9
sg10
g11
sg12
I00
sg13
(dp58
g15
g16
sg17
I162
ssg17
I162
sg18
S''
sg19
g20
sg21
(lp59
S'10.104.129.38'
p60
asg15
g16
sg24
S'udp_00162'
p61
sg26
(lp62
g10
ag8
ag18
ag24
ag21
ag15
ag17
ag12
ag13
ag19
asba(iProducts.DataCollector.plugins.DataMaps
ObjectMap
p63
(dp64
g8
g9
sg10
g11
sg12
I00
sg13
(dp65
g15
g16
sg17
I123
ssg17
I123
sg18
S''
sg19
g20
sg21
(lp66
S'10.104.129.38'
p67
asg15
g16
sg24
S'udp_00123'
p68
sg26
(lp69
g10
ag8
ag18
ag24
ag21
ag15
ag17
ag12
ag13
ag19
asba(iProducts.DataCollector.plugins.DataMaps
ObjectMap
p70
(dp71
g8
g9
sg10
g11
sg12
I00
sg13
(dp72
g15
g16
sg17
I1698
ssg17
I1698
sg18
S''
sg19
g20
sg21
(lp73
S'10.104.129.38'
p74
asg15
g16
sg24
S'udp_01698'
p75
sg26
(lp76
g10
ag8
ag18
ag24
ag21
ag15
ag17
ag12
ag13
ag19
asba(iProducts.DataCollector.plugins.DataMaps
ObjectMap
p77
(dp78
g8
g9
sg10
g11
sg12
I00
sg13
(dp79
g15
g16
sg17
I520
ssg17
I520
sg18
S''
sg19
g20
sg21
(lp80
S'10.104.129.38'
p81
asg15
g16
sg24
S'udp_00520'
p82
sg26
(lp83
g10
ag8
ag18
ag24
ag21
ag15
ag17
ag12
ag13
ag19
asba(iProducts.DataCollector.plugins.DataMaps
ObjectMap
p84
(dp85
g8
g9
sg10
g11
sg12
I00
sg13
(dp86
g15
g16
sg17
I1646
ssg17
I1646
sg18
S''
sg19
g20
sg21
(lp87
S'10.104.129.38'
p88
asg15
g16
sg24
S'udp_01646'
p89
sg26
(lp90
g10
ag8
ag18
ag24
ag21
ag15
ag17
ag12
ag13
ag19
asba(iProducts.DataCollector.plugins.DataMaps
ObjectMap
p91
(dp92
g8
g9
sg10
g11
sg12
I00
sg13
(dp93
g15
g16
sg17
I2228
ssg17
I2228
sg18
S''
sg19
g20
sg21
(lp94
S'10.104.129.38'
p95
asg15
g16
sg24
S'udp_02228'
p96
sg26
(lp97
g10
ag8
ag18
ag24
ag21
ag15
ag17
ag12
ag13
ag19
asbasS'relname'
p98
S'ipservices'
p99
sg10
g11
sS'parentId'
p100
S''
sba.