(lp1
(iProducts.DataCollector.plugins.DataMaps
RelationshipMap
p2
(dp3
S'maps'
p4
(lp5
sS'relname'
p6
S'filesystems'
p7
sS'compname'
p8
S'os'
p9
sS'parentId'
p10
S''
sba(iProducts.DataCollector.plugins.DataMaps
ObjectMap
p11
(dp12
g8
g9
sS'totalSwap'
p13
I0
sS'_attrs'
p14
(lp15
g13
ag8
asba.