(lp1
(iProducts.DataCollector.plugins.DataMaps
ObjectMap
p2
(dp3
S'modname'
p4
S''
sS'compname'
p5
S''
sS'snmpSysName'
p6
S'rmpg4bdc.cdc.schwab.com'
p7
sS'snmpOid'
p8
S'.1.3.6.1.4.1.9.1.282'
p9
sS'snmpContact'
p10
S'NOCC 602-977-5900'
p11
sS'classname'
p12
S''
sS'snmpDescr'
p13
S'Cisco IOS Software, s72033_rp Software (s72033_rp-ADVENTERPRISEK9_WAN-M), Version 12.2(33)SXI7, RELEASE SOFTWARE (fc1)\r\nTechnical Support: http://www.cisco.com/techsupport\r\nCopyright (c) 1986-2011 by Cisco Systems, Inc.\r\nCompiled Mon 18-Jul-11 05:49 by pr'
p14
sS'snmpLocation'
p15
S'PDC3-BAY2-I25'
p16
sS'_attrs'
p17
(lp18
g15
ag13
ag10
ag6
ag8
ag5
ag4
ag12
asba.