(lp1
(iProducts.DataCollector.plugins.DataMaps
RelationshipMap
p2
(dp3
S'maps'
p4
(lp5
(iProducts.DataCollector.plugins.DataMaps
ObjectMap
p6
(dp7
S'modname'
p8
S'Products.ZenModel.IpRouteEntry'
p9
sS'compname'
p10
S'os'
p11
sS'setTarget'
p12
S'10.104.108.0/24'
p13
sS'metric1'
p14
I0
sS'setInterfaceIndex'
p15
I106
sS'classname'
p16
S''
sS'routemask'
p17
I24
sS'routeproto'
p18
S'bgp'
p19
sS'setNextHopIp'
p20
S'0.0.0.0'
p21
sS'id'
p22
S'10.104.108.0_24'
p23
sS'routetype'
p24
S'indirect'
p25
sS'_attrs'
p26
(lp27
g14
ag15
ag17
ag18
ag20
ag22
ag24
ag10
ag8
ag16
ag12
asba(iProducts.DataCollector.plugins.DataMaps
ObjectMap
p28
(dp29
g8
g9
sg10
g11
sg12
S'10.105.227.32/28'
p30
sg14
I0
sg15
I114
sg16
S''
sg17
I28
sg18
S'local'
p31
sg20
S'10.104.111.9'
p32
sg22
S'10.105.227.32_28'
p33
sg24
g25
sg26
(lp34
g14
ag15
ag17
ag18
ag20
ag22
ag24
ag10
ag8
ag16
ag12
asba(iProducts.DataCollector.plugins.DataMaps
ObjectMap
p35
(dp36
g8
g9
sg10
g11
sg12
S'10.105.214.64/27'
p37
sg14
I0
sg15
I243
sg16
S''
sg17
I27
sg18
g31
sg20
S'10.105.212.1'
p38
sg22
S'10.105.214.64_27'
p39
sg24
g25
sg26
(lp40
g14
ag15
ag17
ag18
ag20
ag22
ag24
ag10
ag8
ag16
ag12
asba(iProducts.DataCollector.plugins.DataMaps
ObjectMap
p41
(dp42
g8
g9
sg10
g11
sg12
S'10.105.230.0/28'
p43
sg14
I0
sg15
I285
sg16
S''
sg17
I28
sg18
g31
sg20
S'10.105.230.12'
p44
sg22
S'10.105.230.0_28'
p45
sg24
S'direct'
p46
sg26
(lp47
g14
ag15
ag17
ag18
ag20
ag22
ag24
ag10
ag8
ag16
ag12
asba(iProducts.DataCollector.plugins.DataMaps
ObjectMap
p48
(dp49
g8
g9
sg10
g11
sg12
S'10.105.229.224/28'
p50
sg14
I0
sg15
I243
sg16
S''
sg17
I28
sg18
g31
sg20
S'10.105.212.1'
p51
sg22
S'10.105.229.224_28'
p52
sg24
g25
sg26
(lp53
g14
ag15
ag17
ag18
ag20
ag22
ag24
ag10
ag8
ag16
ag12
asba(iProducts.DataCollector.plugins.DataMaps
ObjectMap
p54
(dp55
g8
g9
sg10
g11
sg12
S'10.105.213.224/27'
p56
sg14
I0
sg15
I242
sg16
S''
sg17
I27
sg18
g31
sg20
S'10.105.213.253'
p57
sg22
S'10.105.213.224_27'
p58
sg24
g46
sg26
(lp59
g14
ag15
ag17
ag18
ag20
ag22
ag24
ag10
ag8
ag16
ag12
asba(iProducts.DataCollector.plugins.DataMaps
ObjectMap
p60
(dp61
g8
g9
sg10
g11
sg12
S'10.104.76.0/26'
p62
sg14
I0
sg15
I128
sg16
S''
sg17
I26
sg18
g31
sg20
S'10.104.76.62'
p63
sg22
S'10.104.76.0_26'
p64
sg24
g46
sg26
(lp65
g14
ag15
ag17
ag18
ag20
ag22
ag24
ag10
ag8
ag16
ag12
asba(iProducts.DataCollector.plugins.DataMaps
ObjectMap
p66
(dp67
g8
g9
sg10
g11
sg12
S'10.105.231.96/28'
p68
sg14
I0
sg15
I243
sg16
S''
sg17
I28
sg18
g31
sg20
S'10.105.212.1'
p69
sg22
S'10.105.231.96_28'
p70
sg24
g25
sg26
(lp71
g14
ag15
ag17
ag18
ag20
ag22
ag24
ag10
ag8
ag16
ag12
asba(iProducts.DataCollector.plugins.DataMaps
ObjectMap
p72
(dp73
g8
g9
sg10
g11
sg12
S'10.105.212.48/29'
p74
sg14
I0
sg15
I114
sg16
S''
sg17
I29
sg18
g31
sg20
S'10.104.111.9'
p75
sg22
S'10.105.212.48_29'
p76
sg24
g25
sg26
(lp77
g14
ag15
ag17
ag18
ag20
ag22
ag24
ag10
ag8
ag16
ag12
asba(iProducts.DataCollector.plugins.DataMaps
ObjectMap
p78
(dp79
g8
g9
sg10
g11
sg12
S'10.105.126.0/23'
p80
sg14
I0
sg15
I243
sg16
S''
sg17
I23
sg18
g31
sg20
S'10.105.212.1'
p81
sg22
S'10.105.126.0_23'
p82
sg24
g25
sg26
(lp83
g14
ag15
ag17
ag18
ag20
ag22
ag24
ag10
ag8
ag16
ag12
asba(iProducts.DataCollector.plugins.DataMaps
ObjectMap
p84
(dp85
g8
g9
sg10
g11
sg12
S'10.105.231.80/28'
p86
sg14
I0
sg15
I243
sg16
S''
sg17
I28
sg18
g31
sg20
S'10.105.212.1'
p87
sg22
S'10.105.231.80_28'
p88
sg24
g25
sg26
(lp89
g14
ag15
ag17
ag18
ag20
ag22
ag24
ag10
ag8
ag16
ag12
asba(iProducts.DataCollector.plugins.DataMaps
ObjectMap
p90
(dp91
g8
g9
sg10
g11
sg12
S'10.105.212.40/29'
p92
sg14
I0
sg15
I114
sg16
S''
sg17
I29
sg18
g31
sg20
S'10.104.111.9'
p93
sg22
S'10.105.212.40_29'
p94
sg24
g25
sg26
(lp95
g14
ag15
ag17
ag18
ag20
ag22
ag24
ag10
ag8
ag16
ag12
asba(iProducts.DataCollector.plugins.DataMaps
ObjectMap
p96
(dp97
g8
g9
sg10
g11
sg12
S'10.104.112.0/24'
p98
sg14
I0
sg15
I114
sg16
S''
sg17
I24
sg18
g31
sg20
S'10.104.111.9'
p99
sg22
S'10.104.112.0_24'
p100
sg24
g25
sg26
(lp101
g14
ag15
ag17
ag18
ag20
ag22
ag24
ag10
ag8
ag16
ag12
asba(iProducts.DataCollector.plugins.DataMaps
ObjectMap
p102
(dp103
g8
g9
sg10
g11
sg12
S'162.93.200.192/26'
p104
sg14
I0
sg15
I106
sg16
S''
sg17
I26
sg18
g31
sg20
S'0.0.0.0'
p105
sg22
S'162.93.200.192_26'
p106
sg24
g46
sg26
(lp107
g14
ag15
ag17
ag18
ag20
ag22
ag24
ag10
ag8
ag16
ag12
asba(iProducts.DataCollector.plugins.DataMaps
ObjectMap
p108
(dp109
g8
g9
sg10
g11
sg12
S'10.104.111.128/26'
p110
sg14
I0
sg15
I115
sg16
S''
sg17
I26
sg18
g31
sg20
S'10.104.111.41'
p111
sg22
S'10.104.111.128_26'
p112
sg24
g25
sg26
(lp113
g14
ag15
ag17
ag18
ag20
ag22
ag24
ag10
ag8
ag16
ag12
asba(iProducts.DataCollector.plugins.DataMaps
ObjectMap
p114
(dp115
g8
g9
sg10
g11
sg12
S'10.104.97.0/24'
p116
sg14
I0
sg15
I193
sg16
S''
sg17
I24
sg18
g31
sg20
S'10.104.97.254'
p117
sg22
S'10.104.97.0_24'
p118
sg24
g46
sg26
(lp119
g14
ag15
ag17
ag18
ag20
ag22
ag24
ag10
ag8
ag16
ag12
asba(iProducts.DataCollector.plugins.DataMaps
ObjectMap
p120
(dp121
g8
g9
sg10
g11
sg12
S'162.93.132.144/29'
p122
sg14
I0
sg15
I170
sg16
S''
sg17
I29
sg18
g31
sg20
S'162.93.132.150'
p123
sg22
S'162.93.132.144_29'
p124
sg24
g46
sg26
(lp125
g14
ag15
ag17
ag18
ag20
ag22
ag24
ag10
ag8
ag16
ag12
asba(iProducts.DataCollector.plugins.DataMaps
ObjectMap
p126
(dp127
g8
g9
sg10
g11
sg12
S'10.104.104.0/24'
p128
sg14
I0
sg15
I135
sg16
S''
sg17
I24
sg18
g31
sg20
S'10.104.113.254'
p129
sg22
S'10.104.104.0_24'
p130
sg24
g46
sg26
(lp131
g14
ag15
ag17
ag18
ag20
ag22
ag24
ag10
ag8
ag16
ag12
asba(iProducts.DataCollector.plugins.DataMaps
ObjectMap
p132
(dp133
g8
g9
sg10
g11
sg12
S'10.105.128.0/18'
p134
sg14
I0
sg15
I106
sg16
S''
sg17
I18
sg18
g19
sg20
S'0.0.0.0'
p135
sg22
S'10.105.128.0_18'
p136
sg24
g25
sg26
(lp137
g14
ag15
ag17
ag18
ag20
ag22
ag24
ag10
ag8
ag16
ag12
asba(iProducts.DataCollector.plugins.DataMaps
ObjectMap
p138
(dp139
g8
g9
sg10
g11
sg12
S'10.105.228.16/28'
p140
sg14
I0
sg15
I243
sg16
S''
sg17
I28
sg18
g31
sg20
S'10.105.212.1'
p141
sg22
S'10.105.228.16_28'
p142
sg24
g25
sg26
(lp143
g14
ag15
ag17
ag18
ag20
ag22
ag24
ag10
ag8
ag16
ag12
asba(iProducts.DataCollector.plugins.DataMaps
ObjectMap
p144
(dp145
g8
g9
sg10
g11
sg12
S'10.104.107.0/24'
p146
sg14
I0
sg15
I106
sg16
S''
sg17
I24
sg18
g31
sg20
S'0.0.0.0'
p147
sg22
S'10.104.107.0_24'
p148
sg24
g46
sg26
(lp149
g14
ag15
ag17
ag18
ag20
ag22
ag24
ag10
ag8
ag16
ag12
asba(iProducts.DataCollector.plugins.DataMaps
ObjectMap
p150
(dp151
g8
g9
sg10
g11
sg12
S'162.93.124.16/28'
p152
sg14
I0
sg15
I180
sg16
S''
sg17
I28
sg18
g31
sg20
S'162.93.124.30'
p153
sg22
S'162.93.124.16_28'
p154
sg24
g46
sg26
(lp155
g14
ag15
ag17
ag18
ag20
ag22
ag24
ag10
ag8
ag16
ag12
asba(iProducts.DataCollector.plugins.DataMaps
ObjectMap
p156
(dp157
g8
g9
sg10
g11
sg12
S'10.104.120.0/24'
p158
sg14
I0
sg15
I196
sg16
S''
sg17
I24
sg18
g31
sg20
S'10.104.120.254'
p159
sg22
S'10.104.120.0_24'
p160
sg24
g46
sg26
(lp161
g14
ag15
ag17
ag18
ag20
ag22
ag24
ag10
ag8
ag16
ag12
asba(iProducts.DataCollector.plugins.DataMaps
ObjectMap
p162
(dp163
g8
g9
sg10
g11
sg12
S'10.105.228.160/28'
p164
sg14
I0
sg15
I243
sg16
S''
sg17
I28
sg18
g31
sg20
S'10.105.212.1'
p165
sg22
S'10.105.228.160_28'
p166
sg24
g25
sg26
(lp167
g14
ag15
ag17
ag18
ag20
ag22
ag24
ag10
ag8
ag16
ag12
asba(iProducts.DataCollector.plugins.DataMaps
ObjectMap
p168
(dp169
g8
g9
sg10
g11
sg12
S'10.104.177.0/24'
p170
sg14
I0
sg15
I134
sg16
S''
sg17
I24
sg18
g31
sg20
S'10.104.132.254'
p171
sg22
S'10.104.177.0_24'
p172
sg24
g46
sg26
(lp173
g14
ag15
ag17
ag18
ag20
ag22
ag24
ag10
ag8
ag16
ag12
asba(iProducts.DataCollector.plugins.DataMaps
ObjectMap
p174
(dp175
g8
g9
sg10
g11
sg12
S'10.104.202.192/26'
p176
sg14
I0
sg15
I121
sg16
S''
sg17
I26
sg18
g31
sg20
S'10.104.202.254'
p177
sg22
S'10.104.202.192_26'
p178
sg24
g46
sg26
(lp179
g14
ag15
ag17
ag18
ag20
ag22
ag24
ag10
ag8
ag16
ag12
asba(iProducts.DataCollector.plugins.DataMaps
ObjectMap
p180
(dp181
g8
g9
sg10
g11
sg12
S'10.104.110.0/24'
p182
sg14
I0
sg15
I114
sg16
S''
sg17
I24
sg18
g31
sg20
S'10.104.111.9'
p183
sg22
S'10.104.110.0_24'
p184
sg24
g25
sg26
(lp185
g14
ag15
ag17
ag18
ag20
ag22
ag24
ag10
ag8
ag16
ag12
asba(iProducts.DataCollector.plugins.DataMaps
ObjectMap
p186
(dp187
g8
g9
sg10
g11
sg12
S'10.105.135.0/24'
p188
sg14
I0
sg15
I243
sg16
S''
sg17
I24
sg18
g31
sg20
S'10.105.212.1'
p189
sg22
S'10.105.135.0_24'
p190
sg24
g25
sg26
(lp191
g14
ag15
ag17
ag18
ag20
ag22
ag24
ag10
ag8
ag16
ag12
asba(iProducts.DataCollector.plugins.DataMaps
ObjectMap
p192
(dp193
g8
g9
sg10
g11
sg12
S'10.104.113.0/24'
p194
sg14
I0
sg15
I135
sg16
S''
sg17
I24
sg18
g31
sg20
S'10.104.113.254'
p195
sg22
S'10.104.113.0_24'
p196
sg24
g46
sg26
(lp197
g14
ag15
ag17
ag18
ag20
ag22
ag24
ag10
ag8
ag16
ag12
asba(iProducts.DataCollector.plugins.DataMaps
ObjectMap
p198
(dp199
g8
g9
sg10
g11
sg12
S'10.105.212.56/29'
p200
sg14
I0
sg15
I114
sg16
S''
sg17
I29
sg18
g31
sg20
S'10.104.111.9'
p201
sg22
S'10.105.212.56_29'
p202
sg24
g25
sg26
(lp203
g14
ag15
ag17
ag18
ag20
ag22
ag24
ag10
ag8
ag16
ag12
asba(iProducts.DataCollector.plugins.DataMaps
ObjectMap
p204
(dp205
g8
g9
sg10
g11
sg12
S'10.104.86.0/24'
p206
sg14
I0
sg15
I123
sg16
S''
sg17
I24
sg18
g31
sg20
S'10.104.86.254'
p207
sg22
S'10.104.86.0_24'
p208
sg24
g46
sg26
(lp209
g14
ag15
ag17
ag18
ag20
ag22
ag24
ag10
ag8
ag16
ag12
asba(iProducts.DataCollector.plugins.DataMaps
ObjectMap
p210
(dp211
g8
g9
sg10
g11
sg12
S'10.104.89.0/24'
p212
sg14
I0
sg15
I175
sg16
S''
sg17
I24
sg18
g31
sg20
S'10.104.89.254'
p213
sg22
S'10.104.89.0_24'
p214
sg24
g46
sg26
(lp215
g14
ag15
ag17
ag18
ag20
ag22
ag24
ag10
ag8
ag16
ag12
asba(iProducts.DataCollector.plugins.DataMaps
ObjectMap
p216
(dp217
g8
g9
sg10
g11
sg12
S'10.105.213.0/27'
p218
sg14
I0
sg15
I114
sg16
S''
sg17
I27
sg18
g31
sg20
S'10.104.111.9'
p219
sg22
S'10.105.213.0_27'
p220
sg24
g25
sg26
(lp221
g14
ag15
ag17
ag18
ag20
ag22
ag24
ag10
ag8
ag16
ag12
asba(iProducts.DataCollector.plugins.DataMaps
ObjectMap
p222
(dp223
g8
g9
sg10
g11
sg12
S'10.105.228.64/28'
p224
sg14
I0
sg15
I223
sg16
S''
sg17
I28
sg18
g31
sg20
S'10.105.228.78'
p225
sg22
S'10.105.228.64_28'
p226
sg24
g46
sg26
(lp227
g14
ag15
ag17
ag18
ag20
ag22
ag24
ag10
ag8
ag16
ag12
asba(iProducts.DataCollector.plugins.DataMaps
ObjectMap
p228
(dp229
g8
g9
sg10
g11
sg12
S'10.105.191.0/27'
p230
sg14
I0
sg15
I243
sg16
S''
sg17
I27
sg18
g31
sg20
S'10.105.212.1'
p231
sg22
S'10.105.191.0_27'
p232
sg24
g25
sg26
(lp233
g14
ag15
ag17
ag18
ag20
ag22
ag24
ag10
ag8
ag16
ag12
asba(iProducts.DataCollector.plugins.DataMaps
ObjectMap
p234
(dp235
g8
g9
sg10
g11
sg12
S'10.105.229.96/28'
p236
sg14
I0
sg15
I243
sg16
S''
sg17
I28
sg18
g31
sg20
S'10.105.212.1'
p237
sg22
S'10.105.229.96_28'
p238
sg24
g25
sg26
(lp239
g14
ag15
ag17
ag18
ag20
ag22
ag24
ag10
ag8
ag16
ag12
asba(iProducts.DataCollector.plugins.DataMaps
ObjectMap
p240
(dp241
g8
g9
sg10
g11
sg12
S'10.105.229.16/28'
p242
sg14
I0
sg15
I243
sg16
S''
sg17
I28
sg18
g31
sg20
S'10.105.212.1'
p243
sg22
S'10.105.229.16_28'
p244
sg24
g25
sg26
(lp245
g14
ag15
ag17
ag18
ag20
ag22
ag24
ag10
ag8
ag16
ag12
asba(iProducts.DataCollector.plugins.DataMaps
ObjectMap
p246
(dp247
g8
g9
sg10
g11
sg12
S'10.104.131.0/24'
p248
sg14
I0
sg15
I209
sg16
S''
sg17
I24
sg18
g31
sg20
S'10.104.131.254'
p249
sg22
S'10.104.131.0_24'
p250
sg24
g46
sg26
(lp251
g14
ag15
ag17
ag18
ag20
ag22
ag24
ag10
ag8
ag16
ag12
asba(iProducts.DataCollector.plugins.DataMaps
ObjectMap
p252
(dp253
g8
g9
sg10
g11
sg12
S'10.105.230.208/28'
p254
sg14
I0
sg15
I243
sg16
S''
sg17
I28
sg18
g31
sg20
S'10.105.212.1'
p255
sg22
S'10.105.230.208_28'
p256
sg24
g25
sg26
(lp257
g14
ag15
ag17
ag18
ag20
ag22
ag24
ag10
ag8
ag16
ag12
asba(iProducts.DataCollector.plugins.DataMaps
ObjectMap
p258
(dp259
g8
g9
sg10
g11
sg12
S'10.105.192.0/18'
p260
sg14
I0
sg15
I106
sg16
S''
sg17
I18
sg18
g19
sg20
S'0.0.0.0'
p261
sg22
S'10.105.192.0_18'
p262
sg24
g25
sg26
(lp263
g14
ag15
ag17
ag18
ag20
ag22
ag24
ag10
ag8
ag16
ag12
asba(iProducts.DataCollector.plugins.DataMaps
ObjectMap
p264
(dp265
g8
g9
sg10
g11
sg12
S'10.104.132.0/24'
p266
sg14
I0
sg15
I134
sg16
S''
sg17
I24
sg18
g31
sg20
S'10.104.132.254'
p267
sg22
S'10.104.132.0_24'
p268
sg24
g46
sg26
(lp269
g14
ag15
ag17
ag18
ag20
ag22
ag24
ag10
ag8
ag16
ag12
asba(iProducts.DataCollector.plugins.DataMaps
ObjectMap
p270
(dp271
g8
g9
sg10
g11
sg12
S'10.104.85.0/24'
p272
sg14
I0
sg15
I122
sg16
S''
sg17
I24
sg18
g31
sg20
S'10.104.85.254'
p273
sg22
S'10.104.85.0_24'
p274
sg24
g46
sg26
(lp275
g14
ag15
ag17
ag18
ag20
ag22
ag24
ag10
ag8
ag16
ag12
asba(iProducts.DataCollector.plugins.DataMaps
ObjectMap
p276
(dp277
g8
g9
sg10
g11
sg12
S'10.104.115.0/24'
p278
sg14
I0
sg15
I114
sg16
S''
sg17
I24
sg18
g31
sg20
S'10.104.111.9'
p279
sg22
S'10.104.115.0_24'
p280
sg24
g25
sg26
(lp281
g14
ag15
ag17
ag18
ag20
ag22
ag24
ag10
ag8
ag16
ag12
asba(iProducts.DataCollector.plugins.DataMaps
ObjectMap
p282
(dp283
g8
g9
sg10
g11
sg12
S'10.105.230.112/28'
p284
sg14
I0
sg15
I243
sg16
S''
sg17
I28
sg18
g31
sg20
S'10.105.212.1'
p285
sg22
S'10.105.230.112_28'
p286
sg24
g25
sg26
(lp287
g14
ag15
ag17
ag18
ag20
ag22
ag24
ag10
ag8
ag16
ag12
asba(iProducts.DataCollector.plugins.DataMaps
ObjectMap
p288
(dp289
g8
g9
sg10
g11
sg12
S'10.105.228.176/28'
p290
sg14
I0
sg15
I243
sg16
S''
sg17
I28
sg18
g31
sg20
S'10.105.212.1'
p291
sg22
S'10.105.228.176_28'
p292
sg24
g25
sg26
(lp293
g14
ag15
ag17
ag18
ag20
ag22
ag24
ag10
ag8
ag16
ag12
asba(iProducts.DataCollector.plugins.DataMaps
ObjectMap
p294
(dp295
g8
g9
sg10
g11
sg12
S'10.104.92.0/24'
p296
sg14
I0
sg15
I187
sg16
S''
sg17
I24
sg18
g31
sg20
S'10.104.92.254'
p297
sg22
S'10.104.92.0_24'
p298
sg24
g46
sg26
(lp299
g14
ag15
ag17
ag18
ag20
ag22
ag24
ag10
ag8
ag16
ag12
asba(iProducts.DataCollector.plugins.DataMaps
ObjectMap
p300
(dp301
g8
g9
sg10
g11
sg12
S'10.105.229.208/28'
p302
sg14
I0
sg15
I243
sg16
S''
sg17
I28
sg18
g31
sg20
S'10.105.212.1'
p303
sg22
S'10.105.229.208_28'
p304
sg24
g25
sg26
(lp305
g14
ag15
ag17
ag18
ag20
ag22
ag24
ag10
ag8
ag16
ag12
asba(iProducts.DataCollector.plugins.DataMaps
ObjectMap
p306
(dp307
g8
g9
sg10
g11
sg12
S'10.104.91.0/24'
p308
sg14
I0
sg15
I186
sg16
S''
sg17
I24
sg18
g31
sg20
S'10.104.91.254'
p309
sg22
S'10.104.91.0_24'
p310
sg24
g46
sg26
(lp311
g14
ag15
ag17
ag18
ag20
ag22
ag24
ag10
ag8
ag16
ag12
asba(iProducts.DataCollector.plugins.DataMaps
ObjectMap
p312
(dp313
g8
g9
sg10
g11
sg12
S'162.93.138.0/25'
p314
sg14
I0
sg15
I119
sg16
S''
sg17
I25
sg18
g31
sg20
S'10.104.202.126'
p315
sg22
S'162.93.138.0_25'
p316
sg24
g46
sg26
(lp317
g14
ag15
ag17
ag18
ag20
ag22
ag24
ag10
ag8
ag16
ag12
asba(iProducts.DataCollector.plugins.DataMaps
ObjectMap
p318
(dp319
g8
g9
sg10
g11
sg12
S'10.105.228.80/28'
p320
sg14
I0
sg15
I225
sg16
S''
sg17
I28
sg18
g31
sg20
S'10.105.228.94'
p321
sg22
S'10.105.228.80_28'
p322
sg24
g46
sg26
(lp323
g14
ag15
ag17
ag18
ag20
ag22
ag24
ag10
ag8
ag16
ag12
asba(iProducts.DataCollector.plugins.DataMaps
ObjectMap
p324
(dp325
g8
g9
sg10
g11
sg12
S'10.104.94.0/24'
p326
sg14
I0
sg15
I131
sg16
S''
sg17
I24
sg18
g31
sg20
S'10.104.94.254'
p327
sg22
S'10.104.94.0_24'
p328
sg24
g46
sg26
(lp329
g14
ag15
ag17
ag18
ag20
ag22
ag24
ag10
ag8
ag16
ag12
asba(iProducts.DataCollector.plugins.DataMaps
ObjectMap
p330
(dp331
g8
g9
sg10
g11
sg12
S'10.105.228.208/28'
p332
sg14
I0
sg15
I243
sg16
S''
sg17
I28
sg18
g31
sg20
S'10.105.212.1'
p333
sg22
S'10.105.228.208_28'
p334
sg24
g25
sg26
(lp335
g14
ag15
ag17
ag18
ag20
ag22
ag24
ag10
ag8
ag16
ag12
asba(iProducts.DataCollector.plugins.DataMaps
ObjectMap
p336
(dp337
g8
g9
sg10
g11
sg12
S'10.105.227.0/28'
p338
sg14
I0
sg15
I114
sg16
S''
sg17
I28
sg18
g31
sg20
S'10.104.111.9'
p339
sg22
S'10.105.227.0_28'
p340
sg24
g25
sg26
(lp341
g14
ag15
ag17
ag18
ag20
ag22
ag24
ag10
ag8
ag16
ag12
asba(iProducts.DataCollector.plugins.DataMaps
ObjectMap
p342
(dp343
g8
g9
sg10
g11
sg12
S'192.168.144.120/30'
p344
sg14
I0
sg15
I116
sg16
S''
sg17
I30
sg18
g31
sg20
S'192.168.144.121'
p345
sg22
S'192.168.144.120_30'
p346
sg24
g46
sg26
(lp347
g14
ag15
ag17
ag18
ag20
ag22
ag24
ag10
ag8
ag16
ag12
asba(iProducts.DataCollector.plugins.DataMaps
ObjectMap
p348
(dp349
g8
g9
sg10
g11
sg12
S'10.104.96.0/24'
p350
sg14
I0
sg15
I192
sg16
S''
sg17
I24
sg18
g31
sg20
S'10.104.96.254'
p351
sg22
S'10.104.96.0_24'
p352
sg24
g46
sg26
(lp353
g14
ag15
ag17
ag18
ag20
ag22
ag24
ag10
ag8
ag16
ag12
asba(iProducts.DataCollector.plugins.DataMaps
ObjectMap
p354
(dp355
g8
g9
sg10
g11
sg12
S'10.105.230.48/28'
p356
sg14
I0
sg15
I243
sg16
S''
sg17
I28
sg18
g31
sg20
S'10.105.212.1'
p357
sg22
S'10.105.230.48_28'
p358
sg24
g25
sg26
(lp359
g14
ag15
ag17
ag18
ag20
ag22
ag24
ag10
ag8
ag16
ag12
asba(iProducts.DataCollector.plugins.DataMaps
ObjectMap
p360
(dp361
g8
g9
sg10
g11
sg12
S'192.168.144.124/30'
p362
sg14
I0
sg15
I117
sg16
S''
sg17
I30
sg18
g31
sg20
S'192.168.144.125'
p363
sg22
S'192.168.144.124_30'
p364
sg24
g46
sg26
(lp365
g14
ag15
ag17
ag18
ag20
ag22
ag24
ag10
ag8
ag16
ag12
asba(iProducts.DataCollector.plugins.DataMaps
ObjectMap
p366
(dp367
g8
g9
sg10
g11
sg12
S'10.105.212.24/29'
p368
sg14
I0
sg15
I114
sg16
S''
sg17
I29
sg18
g31
sg20
S'10.104.111.9'
p369
sg22
S'10.105.212.24_29'
p370
sg24
g25
sg26
(lp371
g14
ag15
ag17
ag18
ag20
ag22
ag24
ag10
ag8
ag16
ag12
asba(iProducts.DataCollector.plugins.DataMaps
ObjectMap
p372
(dp373
g8
g9
sg10
g11
sg12
S'10.105.136.0/24'
p374
sg14
I0
sg15
I243
sg16
S''
sg17
I24
sg18
g31
sg20
S'10.105.212.1'
p375
sg22
S'10.105.136.0_24'
p376
sg24
g25
sg26
(lp377
g14
ag15
ag17
ag18
ag20
ag22
ag24
ag10
ag8
ag16
ag12
asba(iProducts.DataCollector.plugins.DataMaps
ObjectMap
p378
(dp379
g8
g9
sg10
g11
sg12
S'10.105.228.32/28'
p380
sg14
I0
sg15
I243
sg16
S''
sg17
I28
sg18
g31
sg20
S'10.105.212.1'
p381
sg22
S'10.105.228.32_28'
p382
sg24
g25
sg26
(lp383
g14
ag15
ag17
ag18
ag20
ag22
ag24
ag10
ag8
ag16
ag12
asba(iProducts.DataCollector.plugins.DataMaps
ObjectMap
p384
(dp385
g8
g9
sg10
g11
sg12
S'10.105.228.96/28'
p386
sg14
I0
sg15
I226
sg16
S''
sg17
I28
sg18
g31
sg20
S'10.105.228.108'
p387
sg22
S'10.105.228.96_28'
p388
sg24
g46
sg26
(lp389
g14
ag15
ag17
ag18
ag20
ag22
ag24
ag10
ag8
ag16
ag12
asba(iProducts.DataCollector.plugins.DataMaps
ObjectMap
p390
(dp391
g8
g9
sg10
g11
sg12
S'10.104.87.0/24'
p392
sg14
I0
sg15
I243
sg16
S''
sg17
I24
sg18
g31
sg20
S'10.105.212.1'
p393
sg22
S'10.104.87.0_24'
p394
sg24
g25
sg26
(lp395
g14
ag15
ag17
ag18
ag20
ag22
ag24
ag10
ag8
ag16
ag12
asba(iProducts.DataCollector.plugins.DataMaps
ObjectMap
p396
(dp397
g8
g9
sg10
g11
sg12
S'10.105.229.192/28'
p398
sg14
I0
sg15
I291
sg16
S''
sg17
I28
sg18
g31
sg20
S'10.105.229.204'
p399
sg22
S'10.105.229.192_28'
p400
sg24
g46
sg26
(lp401
g14
ag15
ag17
ag18
ag20
ag22
ag24
ag10
ag8
ag16
ag12
asba(iProducts.DataCollector.plugins.DataMaps
ObjectMap
p402
(dp403
g8
g9
sg10
g11
sg12
S'10.105.228.224/28'
p404
sg14
I0
sg15
I243
sg16
S''
sg17
I28
sg18
g31
sg20
S'10.105.212.1'
p405
sg22
S'10.105.228.224_28'
p406
sg24
g25
sg26
(lp407
g14
ag15
ag17
ag18
ag20
ag22
ag24
ag10
ag8
ag16
ag12
asba(iProducts.DataCollector.plugins.DataMaps
ObjectMap
p408
(dp409
g8
g9
sg10
g11
sg12
S'10.104.81.0/24'
p410
sg14
I0
sg15
I125
sg16
S''
sg17
I24
sg18
g31
sg20
S'10.104.81.254'
p411
sg22
S'10.104.81.0_24'
p412
sg24
g46
sg26
(lp413
g14
ag15
ag17
ag18
ag20
ag22
ag24
ag10
ag8
ag16
ag12
asba(iProducts.DataCollector.plugins.DataMaps
ObjectMap
p414
(dp415
g8
g9
sg10
g11
sg12
S'192.168.144.108/30'
p416
sg14
I0
sg15
I130
sg16
S''
sg17
I30
sg18
g31
sg20
S'192.168.144.109'
p417
sg22
S'192.168.144.108_30'
p418
sg24
g46
sg26
(lp419
g14
ag15
ag17
ag18
ag20
ag22
ag24
ag10
ag8
ag16
ag12
asba(iProducts.DataCollector.plugins.DataMaps
ObjectMap
p420
(dp421
g8
g9
sg10
g11
sg12
S'10.105.229.48/28'
p422
sg14
I0
sg15
I243
sg16
S''
sg17
I28
sg18
g31
sg20
S'10.105.212.1'
p423
sg22
S'10.105.229.48_28'
p424
sg24
g25
sg26
(lp425
g14
ag15
ag17
ag18
ag20
ag22
ag24
ag10
ag8
ag16
ag12
asba(iProducts.DataCollector.plugins.DataMaps
ObjectMap
p426
(dp427
g8
g9
sg10
g11
sg12
S'10.105.229.144/28'
p428
sg14
I0
sg15
I243
sg16
S''
sg17
I28
sg18
g31
sg20
S'10.105.212.1'
p429
sg22
S'10.105.229.144_28'
p430
sg24
g25
sg26
(lp431
g14
ag15
ag17
ag18
ag20
ag22
ag24
ag10
ag8
ag16
ag12
asba(iProducts.DataCollector.plugins.DataMaps
ObjectMap
p432
(dp433
g8
g9
sg10
g11
sg12
S'10.104.90.0/24'
p434
sg14
I0
sg15
I184
sg16
S''
sg17
I24
sg18
g31
sg20
S'10.104.90.254'
p435
sg22
S'10.104.90.0_24'
p436
sg24
g46
sg26
(lp437
g14
ag15
ag17
ag18
ag20
ag22
ag24
ag10
ag8
ag16
ag12
asba(iProducts.DataCollector.plugins.DataMaps
ObjectMap
p438
(dp439
g8
g9
sg10
g11
sg12
S'10.104.111.192/26'
p440
sg14
I0
sg15
I115
sg16
S''
sg17
I26
sg18
g31
sg20
S'10.104.111.41'
p441
sg22
S'10.104.111.192_26'
p442
sg24
g25
sg26
(lp443
g14
ag15
ag17
ag18
ag20
ag22
ag24
ag10
ag8
ag16
ag12
asba(iProducts.DataCollector.plugins.DataMaps
ObjectMap
p444
(dp445
g8
g9
sg10
g11
sg12
S'10.105.229.112/28'
p446
sg14
I2
sg15
I243
sg16
S''
sg17
I28
sg18
S'ospf'
p447
sg20
S'10.105.212.1'
p448
sg22
S'10.105.229.112_28'
p449
sg24
g25
sg26
(lp450
g14
ag15
ag17
ag18
ag20
ag22
ag24
ag10
ag8
ag16
ag12
asba(iProducts.DataCollector.plugins.DataMaps
ObjectMap
p451
(dp452
g8
g9
sg10
g11
sg12
S'10.104.95.0/24'
p453
sg14
I0
sg15
I191
sg16
S''
sg17
I24
sg18
g31
sg20
S'10.104.95.254'
p454
sg22
S'10.104.95.0_24'
p455
sg24
g46
sg26
(lp456
g14
ag15
ag17
ag18
ag20
ag22
ag24
ag10
ag8
ag16
ag12
asba(iProducts.DataCollector.plugins.DataMaps
ObjectMap
p457
(dp458
g8
g9
sg10
g11
sg12
S'10.105.180.0/24'
p459
sg14
I0
sg15
I243
sg16
S''
sg17
I24
sg18
g31
sg20
S'10.105.212.1'
p460
sg22
S'10.105.180.0_24'
p461
sg24
g25
sg26
(lp462
g14
ag15
ag17
ag18
ag20
ag22
ag24
ag10
ag8
ag16
ag12
asba(iProducts.DataCollector.plugins.DataMaps
ObjectMap
p463
(dp464
g8
g9
sg10
g11
sg12
S'10.104.111.0/24'
p465
sg14
I0
sg15
I106
sg16
S''
sg17
I24
sg18
g19
sg20
S'0.0.0.0'
p466
sg22
S'10.104.111.0_24'
p467
sg24
g25
sg26
(lp468
g14
ag15
ag17
ag18
ag20
ag22
ag24
ag10
ag8
ag16
ag12
asba(iProducts.DataCollector.plugins.DataMaps
ObjectMap
p469
(dp470
g8
g9
sg10
g11
sg12
S'162.93.201.0/26'
p471
sg14
I0
sg15
I124
sg16
S''
sg17
I26
sg18
g31
sg20
S'162.93.201.62'
p472
sg22
S'162.93.201.0_26'
p473
sg24
g46
sg26
(lp474
g14
ag15
ag17
ag18
ag20
ag22
ag24
ag10
ag8
ag16
ag12
asba(iProducts.DataCollector.plugins.DataMaps
ObjectMap
p475
(dp476
g8
g9
sg10
g11
sg12
S'10.105.229.128/28'
p477
sg14
I0
sg15
I243
sg16
S''
sg17
I28
sg18
g31
sg20
S'10.105.212.1'
p478
sg22
S'10.105.229.128_28'
p479
sg24
g25
sg26
(lp480
g14
ag15
ag17
ag18
ag20
ag22
ag24
ag10
ag8
ag16
ag12
asba(iProducts.DataCollector.plugins.DataMaps
ObjectMap
p481
(dp482
g8
g9
sg10
g11
sg12
S'10.105.229.32/28'
p483
sg14
I0
sg15
I243
sg16
S''
sg17
I28
sg18
g31
sg20
S'10.105.212.1'
p484
sg22
S'10.105.229.32_28'
p485
sg24
g25
sg26
(lp486
g14
ag15
ag17
ag18
ag20
ag22
ag24
ag10
ag8
ag16
ag12
asba(iProducts.DataCollector.plugins.DataMaps
ObjectMap
p487
(dp488
g8
g9
sg10
g11
sg12
S'10.254.192.12/30'
p489
sg14
I1
sg15
I128
sg16
S''
sg17
I30
sg18
S'rip'
p490
sg20
S'10.104.76.7'
p491
sg22
S'10.254.192.12_30'
p492
sg24
g25
sg26
(lp493
g14
ag15
ag17
ag18
ag20
ag22
ag24
ag10
ag8
ag16
ag12
asba(iProducts.DataCollector.plugins.DataMaps
ObjectMap
p494
(dp495
g8
g9
sg10
g11
sg12
S'10.105.230.192/28'
p496
sg14
I0
sg15
I243
sg16
S''
sg17
I28
sg18
g31
sg20
S'10.105.212.1'
p497
sg22
S'10.105.230.192_28'
p498
sg24
g25
sg26
(lp499
g14
ag15
ag17
ag18
ag20
ag22
ag24
ag10
ag8
ag16
ag12
asba(iProducts.DataCollector.plugins.DataMaps
ObjectMap
p500
(dp501
g8
g9
sg10
g11
sg12
S'10.105.227.16/28'
p502
sg14
I0
sg15
I114
sg16
S''
sg17
I28
sg18
g31
sg20
S'10.104.111.9'
p503
sg22
S'10.105.227.16_28'
p504
sg24
g25
sg26
(lp505
g14
ag15
ag17
ag18
ag20
ag22
ag24
ag10
ag8
ag16
ag12
asba(iProducts.DataCollector.plugins.DataMaps
ObjectMap
p506
(dp507
g8
g9
sg10
g11
sg12
S'10.105.212.32/29'
p508
sg14
I0
sg15
I114
sg16
S''
sg17
I29
sg18
g31
sg20
S'10.104.111.9'
p509
sg22
S'10.105.212.32_29'
p510
sg24
g25
sg26
(lp511
g14
ag15
ag17
ag18
ag20
ag22
ag24
ag10
ag8
ag16
ag12
asba(iProducts.DataCollector.plugins.DataMaps
ObjectMap
p512
(dp513
g8
g9
sg10
g11
sg12
S'10.105.230.224/28'
p514
sg14
I0
sg15
I243
sg16
S''
sg17
I28
sg18
g31
sg20
S'10.105.212.1'
p515
sg22
S'10.105.230.224_28'
p516
sg24
g25
sg26
(lp517
g14
ag15
ag17
ag18
ag20
ag22
ag24
ag10
ag8
ag16
ag12
asba(iProducts.DataCollector.plugins.DataMaps
ObjectMap
p518
(dp519
g8
g9
sg10
g11
sg12
S'10.105.214.192/26'
p520
sg14
I0
sg15
I243
sg16
S''
sg17
I26
sg18
g31
sg20
S'10.105.212.1'
p521
sg22
S'10.105.214.192_26'
p522
sg24
g25
sg26
(lp523
g14
ag15
ag17
ag18
ag20
ag22
ag24
ag10
ag8
ag16
ag12
asba(iProducts.DataCollector.plugins.DataMaps
ObjectMap
p524
(dp525
g8
g9
sg10
g11
sg12
S'162.93.124.48/28'
p526
sg14
I0
sg15
I243
sg16
S''
sg17
I28
sg18
g31
sg20
S'10.105.212.1'
p527
sg22
S'162.93.124.48_28'
p528
sg24
g25
sg26
(lp529
g14
ag15
ag17
ag18
ag20
ag22
ag24
ag10
ag8
ag16
ag12
asba(iProducts.DataCollector.plugins.DataMaps
ObjectMap
p530
(dp531
g8
g9
sg10
g11
sg12
S'10.104.118.0/24'
p532
sg14
I0
sg15
I114
sg16
S''
sg17
I24
sg18
g31
sg20
S'10.104.111.9'
p533
sg22
S'10.104.118.0_24'
p534
sg24
g25
sg26
(lp535
g14
ag15
ag17
ag18
ag20
ag22
ag24
ag10
ag8
ag16
ag12
asba(iProducts.DataCollector.plugins.DataMaps
ObjectMap
p536
(dp537
g8
g9
sg10
g11
sg12
S'10.105.213.160/27'
p538
sg14
I0
sg15
I114
sg16
S''
sg17
I27
sg18
g31
sg20
S'10.104.111.9'
p539
sg22
S'10.105.213.160_27'
p540
sg24
g25
sg26
(lp541
g14
ag15
ag17
ag18
ag20
ag22
ag24
ag10
ag8
ag16
ag12
asba(iProducts.DataCollector.plugins.DataMaps
ObjectMap
p542
(dp543
g8
g9
sg10
g11
sg12
S'10.104.202.0/24'
p544
sg14
I0
sg15
I106
sg16
S''
sg17
I24
sg18
g19
sg20
S'0.0.0.0'
p545
sg22
S'10.104.202.0_24'
p546
sg24
g25
sg26
(lp547
g14
ag15
ag17
ag18
ag20
ag22
ag24
ag10
ag8
ag16
ag12
asba(iProducts.DataCollector.plugins.DataMaps
ObjectMap
p548
(dp549
g8
g9
sg10
g11
sg12
S'10.105.228.112/28'
p550
sg14
I0
sg15
I227
sg16
S''
sg17
I28
sg18
g31
sg20
S'10.105.228.125'
p551
sg22
S'10.105.228.112_28'
p552
sg24
g46
sg26
(lp553
g14
ag15
ag17
ag18
ag20
ag22
ag24
ag10
ag8
ag16
ag12
asba(iProducts.DataCollector.plugins.DataMaps
ObjectMap
p554
(dp555
g8
g9
sg10
g11
sg12
S'192.168.144.104/30'
p556
sg14
I0
sg15
I129
sg16
S''
sg17
I30
sg18
g31
sg20
S'192.168.144.105'
p557
sg22
S'192.168.144.104_30'
p558
sg24
g46
sg26
(lp559
g14
ag15
ag17
ag18
ag20
ag22
ag24
ag10
ag8
ag16
ag12
asba(iProducts.DataCollector.plugins.DataMaps
ObjectMap
p560
(dp561
g8
g9
sg10
g11
sg12
S'162.93.138.128/25'
p562
sg14
I0
sg15
I120
sg16
S''
sg17
I25
sg18
g31
sg20
S'162.93.138.254'
p563
sg22
S'162.93.138.128_25'
p564
sg24
g46
sg26
(lp565
g14
ag15
ag17
ag18
ag20
ag22
ag24
ag10
ag8
ag16
ag12
asba(iProducts.DataCollector.plugins.DataMaps
ObjectMap
p566
(dp567
g8
g9
sg10
g11
sg12
S'10.104.129.40/30'
p568
sg14
I0
sg15
I236
sg16
S''
sg17
I30
sg18
g31
sg20
S'10.104.129.42'
p569
sg22
S'10.104.129.40_30'
p570
sg24
g46
sg26
(lp571
g14
ag15
ag17
ag18
ag20
ag22
ag24
ag10
ag8
ag16
ag12
asba(iProducts.DataCollector.plugins.DataMaps
ObjectMap
p572
(dp573
g8
g9
sg10
g11
sg12
S'10.104.100.0/24'
p574
sg14
I0
sg15
I126
sg16
S''
sg17
I24
sg18
g31
sg20
S'10.104.100.254'
p575
sg22
S'10.104.100.0_24'
p576
sg24
g46
sg26
(lp577
g14
ag15
ag17
ag18
ag20
ag22
ag24
ag10
ag8
ag16
ag12
asba(iProducts.DataCollector.plugins.DataMaps
ObjectMap
p578
(dp579
g8
g9
sg10
g11
sg12
S'10.104.129.48/30'
p580
sg14
I3072
sg15
I114
sg16
S''
sg17
I30
sg18
S'ciscoIgrp'
p581
sg20
S'10.104.111.13'
p582
sg22
S'10.104.129.48_30'
p583
sg24
g25
sg26
(lp584
g14
ag15
ag17
ag18
ag20
ag22
ag24
ag10
ag8
ag16
ag12
asba(iProducts.DataCollector.plugins.DataMaps
ObjectMap
p585
(dp586
g8
g9
sg10
g11
sg12
S'10.105.230.128/28'
p587
sg14
I0
sg15
I243
sg16
S''
sg17
I28
sg18
g31
sg20
S'10.105.212.1'
p588
sg22
S'10.105.230.128_28'
p589
sg24
g25
sg26
(lp590
g14
ag15
ag17
ag18
ag20
ag22
ag24
ag10
ag8
ag16
ag12
asba(iProducts.DataCollector.plugins.DataMaps
ObjectMap
p591
(dp592
g8
g9
sg10
g11
sg12
S'10.105.229.64/28'
p593
sg14
I0
sg15
I243
sg16
S''
sg17
I28
sg18
g31
sg20
S'10.105.212.1'
p594
sg22
S'10.105.229.64_28'
p595
sg24
g25
sg26
(lp596
g14
ag15
ag17
ag18
ag20
ag22
ag24
ag10
ag8
ag16
ag12
asba(iProducts.DataCollector.plugins.DataMaps
ObjectMap
p597
(dp598
g8
g9
sg10
g11
sg12
S'10.104.101.0/24'
p599
sg14
I0
sg15
I127
sg16
S''
sg17
I24
sg18
g31
sg20
S'10.104.101.254'
p600
sg22
S'10.104.101.0_24'
p601
sg24
g46
sg26
(lp602
g14
ag15
ag17
ag18
ag20
ag22
ag24
ag10
ag8
ag16
ag12
asba(iProducts.DataCollector.plugins.DataMaps
ObjectMap
p603
(dp604
g8
g9
sg10
g11
sg12
S'10.105.212.0/29'
p605
sg14
I0
sg15
I243
sg16
S''
sg17
I29
sg18
g31
sg20
S'10.105.212.4'
p606
sg22
S'10.105.212.0_29'
p607
sg24
g46
sg26
(lp608
g14
ag15
ag17
ag18
ag20
ag22
ag24
ag10
ag8
ag16
ag12
asba(iProducts.DataCollector.plugins.DataMaps
ObjectMap
p609
(dp610
g8
g9
sg10
g11
sg12
S'10.105.230.64/28'
p611
sg14
I0
sg15
I243
sg16
S''
sg17
I28
sg18
g31
sg20
S'10.105.212.1'
p612
sg22
S'10.105.230.64_28'
p613
sg24
g25
sg26
(lp614
g14
ag15
ag17
ag18
ag20
ag22
ag24
ag10
ag8
ag16
ag12
asba(iProducts.DataCollector.plugins.DataMaps
ObjectMap
p615
(dp616
g8
g9
sg10
g11
sg12
S'10.105.231.0/28'
p617
sg14
I0
sg15
I243
sg16
S''
sg17
I28
sg18
g31
sg20
S'10.105.212.1'
p618
sg22
S'10.105.231.0_28'
p619
sg24
g25
sg26
(lp620
g14
ag15
ag17
ag18
ag20
ag22
ag24
ag10
ag8
ag16
ag12
asba(iProducts.DataCollector.plugins.DataMaps
ObjectMap
p621
(dp622
g8
g9
sg10
g11
sg12
S'10.104.109.0/24'
p623
sg14
I0
sg15
I114
sg16
S''
sg17
I24
sg18
g31
sg20
S'10.104.111.9'
p624
sg22
S'10.104.109.0_24'
p625
sg24
g25
sg26
(lp626
g14
ag15
ag17
ag18
ag20
ag22
ag24
ag10
ag8
ag16
ag12
asba(iProducts.DataCollector.plugins.DataMaps
ObjectMap
p627
(dp628
g8
g9
sg10
g11
sg12
S'10.105.228.48/28'
p629
sg14
I0
sg15
I219
sg16
S''
sg17
I28
sg18
g31
sg20
S'10.105.228.60'
p630
sg22
S'10.105.228.48_28'
p631
sg24
g46
sg26
(lp632
g14
ag15
ag17
ag18
ag20
ag22
ag24
ag10
ag8
ag16
ag12
asba(iProducts.DataCollector.plugins.DataMaps
ObjectMap
p633
(dp634
g8
g9
sg10
g11
sg12
S'10.104.129.44/30'
p635
sg14
I3072
sg15
I114
sg16
S''
sg17
I30
sg18
g581
sg20
S'10.104.111.13'
p636
sg22
S'10.104.129.44_30'
p637
sg24
g25
sg26
(lp638
g14
ag15
ag17
ag18
ag20
ag22
ag24
ag10
ag8
ag16
ag12
asba(iProducts.DataCollector.plugins.DataMaps
ObjectMap
p639
(dp640
g8
g9
sg10
g11
sg12
S'10.105.229.176/28'
p641
sg14
I0
sg15
I290
sg16
S''
sg17
I28
sg18
g31
sg20
S'10.105.229.188'
p642
sg22
S'10.105.229.176_28'
p643
sg24
g46
sg26
(lp644
g14
ag15
ag17
ag18
ag20
ag22
ag24
ag10
ag8
ag16
ag12
asba(iProducts.DataCollector.plugins.DataMaps
ObjectMap
p645
(dp646
g8
g9
sg10
g11
sg12
S'10.105.230.32/28'
p647
sg14
I0
sg15
I243
sg16
S''
sg17
I28
sg18
g31
sg20
S'10.105.212.1'
p648
sg22
S'10.105.230.32_28'
p649
sg24
g25
sg26
(lp650
g14
ag15
ag17
ag18
ag20
ag22
ag24
ag10
ag8
ag16
ag12
asba(iProducts.DataCollector.plugins.DataMaps
ObjectMap
p651
(dp652
g8
g9
sg10
g11
sg12
S'10.104.111.32/28'
p653
sg14
I0
sg15
I115
sg16
S''
sg17
I28
sg18
g31
sg20
S'10.104.111.46'
p654
sg22
S'10.104.111.32_28'
p655
sg24
g46
sg26
(lp656
g14
ag15
ag17
ag18
ag20
ag22
ag24
ag10
ag8
ag16
ag12
asba(iProducts.DataCollector.plugins.DataMaps
ObjectMap
p657
(dp658
g8
g9
sg10
g11
sg12
S'10.104.116.0/24'
p659
sg14
I0
sg15
I114
sg16
S''
sg17
I24
sg18
g31
sg20
S'10.104.111.9'
p660
sg22
S'10.104.116.0_24'
p661
sg24
g25
sg26
(lp662
g14
ag15
ag17
ag18
ag20
ag22
ag24
ag10
ag8
ag16
ag12
asba(iProducts.DataCollector.plugins.DataMaps
ObjectMap
p663
(dp664
g8
g9
sg10
g11
sg12
S'10.104.129.36/30'
p665
sg14
I0
sg15
I232
sg16
S''
sg17
I30
sg18
g31
sg20
S'10.104.129.38'
p666
sg22
S'10.104.129.36_30'
p667
sg24
g46
sg26
(lp668
g14
ag15
ag17
ag18
ag20
ag22
ag24
ag10
ag8
ag16
ag12
asba(iProducts.DataCollector.plugins.DataMaps
ObjectMap
p669
(dp670
g8
g9
sg10
g11
sg12
S'192.168.144.116/30'
p671
sg14
I0
sg15
I133
sg16
S''
sg17
I30
sg18
g31
sg20
S'192.168.144.117'
p672
sg22
S'192.168.144.116_30'
p673
sg24
g46
sg26
(lp674
g14
ag15
ag17
ag18
ag20
ag22
ag24
ag10
ag8
ag16
ag12
asba(iProducts.DataCollector.plugins.DataMaps
ObjectMap
p675
(dp676
g8
g9
sg10
g11
sg12
S'10.105.229.240/28'
p677
sg14
I0
sg15
I243
sg16
S''
sg17
I28
sg18
g31
sg20
S'10.105.212.1'
p678
sg22
S'10.105.229.240_28'
p679
sg24
g25
sg26
(lp680
g14
ag15
ag17
ag18
ag20
ag22
ag24
ag10
ag8
ag16
ag12
asba(iProducts.DataCollector.plugins.DataMaps
ObjectMap
p681
(dp682
g8
g9
sg10
g11
sg12
S'10.105.212.8/29'
p683
sg14
I0
sg15
I114
sg16
S''
sg17
I29
sg18
g31
sg20
S'10.104.111.9'
p684
sg22
S'10.105.212.8_29'
p685
sg24
g25
sg26
(lp686
g14
ag15
ag17
ag18
ag20
ag22
ag24
ag10
ag8
ag16
ag12
asba(iProducts.DataCollector.plugins.DataMaps
ObjectMap
p687
(dp688
g8
g9
sg10
g11
sg12
S'10.105.213.128/27'
p689
sg14
I0
sg15
I114
sg16
S''
sg17
I27
sg18
g31
sg20
S'10.104.111.9'
p690
sg22
S'10.105.213.128_27'
p691
sg24
g25
sg26
(lp692
g14
ag15
ag17
ag18
ag20
ag22
ag24
ag10
ag8
ag16
ag12
asba(iProducts.DataCollector.plugins.DataMaps
ObjectMap
p693
(dp694
g8
g9
sg10
g11
sg12
S'10.104.119.0/24'
p695
sg14
I0
sg15
I135
sg16
S''
sg17
I24
sg18
g31
sg20
S'10.104.113.254'
p696
sg22
S'10.104.119.0_24'
p697
sg24
g46
sg26
(lp698
g14
ag15
ag17
ag18
ag20
ag22
ag24
ag10
ag8
ag16
ag12
asba(iProducts.DataCollector.plugins.DataMaps
ObjectMap
p699
(dp700
g8
g9
sg10
g11
sg12
S'10.105.230.16/28'
p701
sg14
I0
sg15
I243
sg16
S''
sg17
I28
sg18
g31
sg20
S'10.105.212.1'
p702
sg22
S'10.105.230.16_28'
p703
sg24
g25
sg26
(lp704
g14
ag15
ag17
ag18
ag20
ag22
ag24
ag10
ag8
ag16
ag12
asba(iProducts.DataCollector.plugins.DataMaps
ObjectMap
p705
(dp706
g8
g9
sg10
g11
sg12
S'10.105.230.240/28'
p707
sg14
I0
sg15
I243
sg16
S''
sg17
I28
sg18
g31
sg20
S'10.105.212.1'
p708
sg22
S'10.105.230.240_28'
p709
sg24
g25
sg26
(lp710
g14
ag15
ag17
ag18
ag20
ag22
ag24
ag10
ag8
ag16
ag12
asba(iProducts.DataCollector.plugins.DataMaps
ObjectMap
p711
(dp712
g8
g9
sg10
g11
sg12
S'10.105.230.80/28'
p713
sg14
I0
sg15
I243
sg16
S''
sg17
I28
sg18
g31
sg20
S'10.105.212.1'
p714
sg22
S'10.105.230.80_28'
p715
sg24
g25
sg26
(lp716
g14
ag15
ag17
ag18
ag20
ag22
ag24
ag10
ag8
ag16
ag12
asba(iProducts.DataCollector.plugins.DataMaps
ObjectMap
p717
(dp718
g8
g9
sg10
g11
sg12
S'192.168.144.112/30'
p719
sg14
I0
sg15
I132
sg16
S''
sg17
I30
sg18
g31
sg20
S'192.168.144.113'
p720
sg22
S'192.168.144.112_30'
p721
sg24
g46
sg26
(lp722
g14
ag15
ag17
ag18
ag20
ag22
ag24
ag10
ag8
ag16
ag12
asba(iProducts.DataCollector.plugins.DataMaps
ObjectMap
p723
(dp724
g8
g9
sg10
g11
sg12
S'10.105.228.128/28'
p725
sg14
I0
sg15
I114
sg16
S''
sg17
I28
sg18
g31
sg20
S'10.104.111.9'
p726
sg22
S'10.105.228.128_28'
p727
sg24
g25
sg26
(lp728
g14
ag15
ag17
ag18
ag20
ag22
ag24
ag10
ag8
ag16
ag12
asba(iProducts.DataCollector.plugins.DataMaps
ObjectMap
p729
(dp730
g8
g9
sg10
g11
sg12
S'10.105.229.0/28'
p731
sg14
I0
sg15
I243
sg16
S''
sg17
I28
sg18
g31
sg20
S'10.105.212.1'
p732
sg22
S'10.105.229.0_28'
p733
sg24
g25
sg26
(lp734
g14
ag15
ag17
ag18
ag20
ag22
ag24
ag10
ag8
ag16
ag12
asba(iProducts.DataCollector.plugins.DataMaps
ObjectMap
p735
(dp736
g8
g9
sg10
g11
sg12
S'10.105.228.240/28'
p737
sg14
I0
sg15
I243
sg16
S''
sg17
I28
sg18
g31
sg20
S'10.105.212.1'
p738
sg22
S'10.105.228.240_28'
p739
sg24
g25
sg26
(lp740
g14
ag15
ag17
ag18
ag20
ag22
ag24
ag10
ag8
ag16
ag12
asba(iProducts.DataCollector.plugins.DataMaps
ObjectMap
p741
(dp742
g8
g9
sg10
g11
sg12
S'10.105.154.0/24'
p743
sg14
I0
sg15
I243
sg16
S''
sg17
I24
sg18
g31
sg20
S'10.105.212.1'
p744
sg22
S'10.105.154.0_24'
p745
sg24
g25
sg26
(lp746
g14
ag15
ag17
ag18
ag20
ag22
ag24
ag10
ag8
ag16
ag12
asba(iProducts.DataCollector.plugins.DataMaps
ObjectMap
p747
(dp748
g8
g9
sg10
g11
sg12
S'10.105.214.32/27'
p749
sg14
I0
sg15
I280
sg16
S''
sg17
I27
sg18
g31
sg20
S'10.105.214.60'
p750
sg22
S'10.105.214.32_27'
p751
sg24
g46
sg26
(lp752
g14
ag15
ag17
ag18
ag20
ag22
ag24
ag10
ag8
ag16
ag12
asba(iProducts.DataCollector.plugins.DataMaps
ObjectMap
p753
(dp754
g8
g9
sg10
g11
sg12
S'10.105.229.160/28'
p755
sg14
I0
sg15
I243
sg16
S''
sg17
I28
sg18
g31
sg20
S'10.105.212.1'
p756
sg22
S'10.105.229.160_28'
p757
sg24
g25
sg26
(lp758
g14
ag15
ag17
ag18
ag20
ag22
ag24
ag10
ag8
ag16
ag12
asba(iProducts.DataCollector.plugins.DataMaps
ObjectMap
p759
(dp760
g8
g9
sg10
g11
sg12
S'10.104.105.0/24'
p761
sg14
I0
sg15
I135
sg16
S''
sg17
I24
sg18
g31
sg20
S'10.104.113.254'
p762
sg22
S'10.104.105.0_24'
p763
sg24
g46
sg26
(lp764
g14
ag15
ag17
ag18
ag20
ag22
ag24
ag10
ag8
ag16
ag12
asba(iProducts.DataCollector.plugins.DataMaps
ObjectMap
p765
(dp766
g8
g9
sg10
g11
sg12
S'10.105.228.0/28'
p767
sg14
I0
sg15
I243
sg16
S''
sg17
I28
sg18
g31
sg20
S'10.105.212.1'
p768
sg22
S'10.105.228.0_28'
p769
sg24
g25
sg26
(lp770
g14
ag15
ag17
ag18
ag20
ag22
ag24
ag10
ag8
ag16
ag12
asba(iProducts.DataCollector.plugins.DataMaps
ObjectMap
p771
(dp772
g8
g9
sg10
g11
sg12
S'10.105.230.96/28'
p773
sg14
I0
sg15
I243
sg16
S''
sg17
I28
sg18
g31
sg20
S'10.105.212.1'
p774
sg22
S'10.105.230.96_28'
p775
sg24
g25
sg26
(lp776
g14
ag15
ag17
ag18
ag20
ag22
ag24
ag10
ag8
ag16
ag12
asba(iProducts.DataCollector.plugins.DataMaps
ObjectMap
p777
(dp778
g8
g9
sg10
g11
sg12
S'10.254.192.28/30'
p779
sg14
I1
sg15
I128
sg16
S''
sg17
I30
sg18
g490
sg20
S'10.104.76.6'
p780
sg22
S'10.254.192.28_30'
p781
sg24
g25
sg26
(lp782
g14
ag15
ag17
ag18
ag20
ag22
ag24
ag10
ag8
ag16
ag12
asba(iProducts.DataCollector.plugins.DataMaps
ObjectMap
p783
(dp784
g8
g9
sg10
g11
sg12
S'162.93.124.32/28'
p785
sg14
I0
sg15
I202
sg16
S''
sg17
I28
sg18
g31
sg20
S'162.93.124.46'
p786
sg22
S'162.93.124.32_28'
p787
sg24
g46
sg26
(lp788
g14
ag15
ag17
ag18
ag20
ag22
ag24
ag10
ag8
ag16
ag12
asba(iProducts.DataCollector.plugins.DataMaps
ObjectMap
p789
(dp790
g8
g9
sg10
g11
sg12
S'0.0.0.0/0'
p791
sg14
I0
sg15
I0
sg16
S''
sg17
I0
sg18
g19
sg20
S'10.104.129.41'
p792
sg22
S'0.0.0.0_0'
p793
sg24
g25
sg26
(lp794
g14
ag15
ag17
ag18
ag20
ag22
ag24
ag10
ag8
ag16
ag12
asba(iProducts.DataCollector.plugins.DataMaps
ObjectMap
p795
(dp796
g8
g9
sg10
g11
sg12
S'10.105.228.144/28'
p797
sg14
I0
sg15
I243
sg16
S''
sg17
I28
sg18
g31
sg20
S'10.105.212.1'
p798
sg22
S'10.105.228.144_28'
p799
sg24
g25
sg26
(lp800
g14
ag15
ag17
ag18
ag20
ag22
ag24
ag10
ag8
ag16
ag12
asba(iProducts.DataCollector.plugins.DataMaps
ObjectMap
p801
(dp802
g8
g9
sg10
g11
sg12
S'10.105.214.0/27'
p803
sg14
I0
sg15
I243
sg16
S''
sg17
I27
sg18
g31
sg20
S'10.105.212.1'
p804
sg22
S'10.105.214.0_27'
p805
sg24
g25
sg26
(lp806
g14
ag15
ag17
ag18
ag20
ag22
ag24
ag10
ag8
ag16
ag12
asba(iProducts.DataCollector.plugins.DataMaps
ObjectMap
p807
(dp808
g8
g9
sg10
g11
sg12
S'10.105.228.192/28'
p809
sg14
I0
sg15
I243
sg16
S''
sg17
I28
sg18
g31
sg20
S'10.105.212.1'
p810
sg22
S'10.105.228.192_28'
p811
sg24
g25
sg26
(lp812
g14
ag15
ag17
ag18
ag20
ag22
ag24
ag10
ag8
ag16
ag12
asba(iProducts.DataCollector.plugins.DataMaps
ObjectMap
p813
(dp814
g8
g9
sg10
g11
sg12
S'10.104.202.64/26'
p815
sg14
I0
sg15
I119
sg16
S''
sg17
I26
sg18
g31
sg20
S'10.104.202.126'
p816
sg22
S'10.104.202.64_26'
p817
sg24
g46
sg26
(lp818
g14
ag15
ag17
ag18
ag20
ag22
ag24
ag10
ag8
ag16
ag12
asba(iProducts.DataCollector.plugins.DataMaps
ObjectMap
p819
(dp820
g8
g9
sg10
g11
sg12
S'10.105.227.224/28'
p821
sg14
I0
sg15
I114
sg16
S''
sg17
I28
sg18
g31
sg20
S'10.104.111.9'
p822
sg22
S'10.105.227.224_28'
p823
sg24
g25
sg26
(lp824
g14
ag15
ag17
ag18
ag20
ag22
ag24
ag10
ag8
ag16
ag12
asba(iProducts.DataCollector.plugins.DataMaps
ObjectMap
p825
(dp826
g8
g9
sg10
g11
sg12
S'162.93.124.0/24'
p827
sg14
I0
sg15
I106
sg16
S''
sg17
I24
sg18
g31
sg20
S'0.0.0.0'
p828
sg22
S'162.93.124.0_24'
p829
sg24
g46
sg26
(lp830
g14
ag15
ag17
ag18
ag20
ag22
ag24
ag10
ag8
ag16
ag12
asba(iProducts.DataCollector.plugins.DataMaps
ObjectMap
p831
(dp832
g8
g9
sg10
g11
sg12
S'162.93.200.224/27'
p833
sg14
I0
sg15
I106
sg16
S''
sg17
I27
sg18
g31
sg20
S'0.0.0.0'
p834
sg22
S'162.93.200.224_27'
p835
sg24
g46
sg26
(lp836
g14
ag15
ag17
ag18
ag20
ag22
ag24
ag10
ag8
ag16
ag12
asba(iProducts.DataCollector.plugins.DataMaps
ObjectMap
p837
(dp838
g8
g9
sg10
g11
sg12
S'10.104.117.0/24'
p839
sg14
I0
sg15
I114
sg16
S''
sg17
I24
sg18
g31
sg20
S'10.104.111.9'
p840
sg22
S'10.104.117.0_24'
p841
sg24
g25
sg26
(lp842
g14
ag15
ag17
ag18
ag20
ag22
ag24
ag10
ag8
ag16
ag12
asbasS'relname'
p843
S'routes'
p844
sg10
g11
sS'parentId'
p845
S''
sba.