(lp1
(iProducts.DataCollector.plugins.DataMaps
RelationshipMap
p2
(dp3
S'maps'
p4
(lp5
(iProducts.DataCollector.plugins.DataMaps
ObjectMap
p6
(dp7
S'adminStatus'
p8
I1
sS'macaddress'
p9
S''
sS'modname'
p10
S'Products.ZenModel.IpInterface'
p11
sS'compname'
p12
S'os'
p13
sS'description'
p14
S'DC LOOPBACK PDV_CSM_RMPG4BDC'
p15
sS'title'
p16
S'Loopback0'
p17
sS'operStatus'
p18
I1
sS'type'
p19
S'softwareLoopback_64'
p20
sS'mtu'
p21
I1514
sS'classname'
p22
S''
sS'duplex'
p23
I0
sS'interfaceName'
p24
g17
sS'ifindex'
p25
I107
sS'setIpAddresses'
p26
(lp27
S'10.104.108.1/32'
p28
asS'speed'
p29
L1737L
sS'id'
p30
g17
sS'_attrs'
p31
(lp32
g8
ag9
ag14
ag18
ag29
ag21
ag23
aS'hcCounters'
p33
ag25
ag19
ag30
ag12
ag10
ag22
ag24
ag16
ag26
asba(iProducts.DataCollector.plugins.DataMaps
ObjectMap
p34
(dp35
g8
I1
sg9
S'00:03:31:7D:5C:00'
p36
sg10
g11
sg12
g13
sg14
S'DC SER 10.105.229.176/28 RDNT AUTO - DNS Dev ES Tier'
p37
sg16
S'Vlan2473'
p38
sg18
I1
sg19
S'propVirtual_64'
p39
sg21
I1500
sg22
S''
sg23
I0
sg24
g38
sg25
I290
sg26
(lp40
S'10.105.229.188/28'
p41
asg29
L1000001927L
sg30
g38
sg31
(lp42
g8
ag9
ag14
ag18
ag29
ag21
ag23
ag33
ag25
ag19
ag30
ag12
ag10
ag22
ag24
ag16
ag26
asba(iProducts.DataCollector.plugins.DataMaps
ObjectMap
p43
(dp44
g8
I1
sg9
S'00:03:31:7D:5C:00'
p45
sg10
g11
sg12
g13
sg14
S'DC SER 10.105.214.32/27 RDNT AUTO - SWISS Ascent Capture Tier'
p46
sg16
S'Vlan2401'
p47
sg18
I1
sg19
S'propVirtual_64'
p48
sg21
I1500
sg22
S''
sg23
I0
sg24
g47
sg25
I280
sg26
(lp49
S'10.105.214.60/27'
p50
asg29
L999999766L
sg30
g47
sg31
(lp51
g8
ag9
ag14
ag18
ag29
ag21
ag23
ag33
ag25
ag19
ag30
ag12
ag10
ag22
ag24
ag16
ag26
asba(iProducts.DataCollector.plugins.DataMaps
ObjectMap
p52
(dp53
g8
I1
sg9
S'00:03:31:7D:5C:00'
p54
sg10
g11
sg12
g13
sg14
S'DC SER 10.104.85.0_/24 RDNT AUTO - PDV Server Segment#4 10.104.'
p55
sg16
S'Vlan800'
p56
sg18
I1
sg19
S'propVirtual_64'
p57
sg21
I1500
sg22
S''
sg23
I0
sg24
g56
sg25
I122
sg26
(lp58
S'10.104.85.248/24'
p59
aS'10.104.85.254/24'
p60
asg29
L1000002578L
sg30
g56
sg31
(lp61
g8
ag9
ag14
ag18
ag29
ag21
ag23
ag33
ag25
ag19
ag30
ag12
ag10
ag22
ag24
ag16
ag26
asba(iProducts.DataCollector.plugins.DataMaps
ObjectMap
p62
(dp63
g8
I1
sg9
S'00:03:31:7D:5C:00'
p64
sg10
g11
sg12
g13
sg14
S'DC SER 162.93.124.32/28 RDNT AUTO  NGFT proxy servers'
p65
sg16
S'Vlan202'
p66
sg18
I1
sg19
S'propVirtual_64'
p67
sg21
I1500
sg22
S''
sg23
I0
sg24
g66
sg25
I202
sg26
(lp68
S'162.93.124.46/28'
p69
asg29
L1000000603L
sg30
g66
sg31
(lp70
g8
ag9
ag14
ag18
ag29
ag21
ag23
ag33
ag25
ag19
ag30
ag12
ag10
ag22
ag24
ag16
ag26
asba(iProducts.DataCollector.plugins.DataMaps
ObjectMap
p71
(dp72
g8
I1
sg9
S'00:03:31:7D:5C:00'
p73
sg10
g11
sg12
g13
sg14
S'DC CORE RSRXG0_1BDC RDNT AUTO - PDC3 Router Core RMPG4BDC TenG3'
p74
sg16
S'Vlan2900'
p75
sg18
I1
sg19
S'propVirtual_64'
p76
sg21
I1500
sg22
S''
sg23
I0
sg24
g75
sg25
I243
sg26
(lp77
S'10.105.212.4/29'
p78
aS'10.105.212.2/29'
p79
asg29
L999999162L
sg30
g75
sg31
(lp80
g8
ag9
ag14
ag18
ag29
ag21
ag23
ag33
ag25
ag19
ag30
ag12
ag10
ag22
ag24
ag16
ag26
asba(iProducts.DataCollector.plugins.DataMaps
ObjectMap
p81
(dp82
g8
I2
sg9
S'00:03:31:7D:5C:00'
p83
sg10
g11
sg12
g13
sg14
S'DC SER 10.105.230.240/28 RDNT AUTO - SI2_QA_DB_SQL_Tier'
p84
sg16
S'Vlan2493'
p85
sg18
I2
sg19
S'propVirtual_64'
p86
sg21
I1500
sg22
S''
sg23
I0
sg24
g85
sg25
I296
sg26
(lp87
S'10.105.230.252/28'
p88
asg29
L999997541L
sg30
g85
sg31
(lp89
g8
ag9
ag14
ag18
ag29
ag21
ag23
ag33
ag25
ag19
ag30
ag12
ag10
ag22
ag24
ag16
ag26
asba(iProducts.DataCollector.plugins.DataMaps
ObjectMap
p90
(dp91
g8
I1
sg9
S'00:03:31:7D:5C:00'
p92
sg10
g11
sg12
g13
sg14
S'DC SER 10.104.81.0_/24 RDNT AUTO - PDV Server Segment#1 10.104.'
p93
sg16
S'Vlan940'
p94
sg18
I1
sg19
S'propVirtual_64'
p95
sg21
I1500
sg22
S''
sg23
I0
sg24
g94
sg25
I125
sg26
(lp96
S'10.104.81.254/24'
p97
aS'10.104.81.248/24'
p98
asg29
L999999607L
sg30
g94
sg31
(lp99
g8
ag9
ag14
ag18
ag29
ag21
ag23
ag33
ag25
ag19
ag30
ag12
ag10
ag22
ag24
ag16
ag26
asba(iProducts.DataCollector.plugins.DataMaps
ObjectMap
p100
(dp101
g8
I1
sg9
S'00:03:31:7D:5C:00'
p102
sg10
g11
sg12
g13
sg14
S'DC CORE RBBK0BDC RDNT AUTO - PDC3 PDV rmpg4bdc Ten3/2 to rbbk0b'
p103
sg16
S'TenGigabitEthernet3/2'
p104
sg18
I1
sg19
S'ethernetCsmacd_64'
p105
sg21
I1500
sg22
S''
sg23
I3
sg24
g104
sg25
I232
sg26
(lp106
S'10.104.129.38/30'
p107
asg29
L627L
sg30
S'TenGigabitEthernet3_2'
p108
sg31
(lp109
g8
ag9
ag14
ag18
ag29
ag21
ag23
ag33
ag25
ag19
ag30
ag12
ag10
ag22
ag24
ag16
ag26
asba(iProducts.DataCollector.plugins.DataMaps
ObjectMap
p110
(dp111
g8
I1
sg9
S'00:03:31:7D:5C:00'
p112
sg10
g11
sg12
g13
sg14
S'DC USER CLIENT_VLAN for CSM and MSFC'
p113
sg16
S'Vlan2'
p114
sg18
I1
sg19
S'propVirtual_64'
p115
sg21
I1500
sg22
S''
sg23
I0
sg24
g114
sg25
I114
sg26
(lp116
S'10.104.111.10/28'
p117
aS'10.104.111.14/28'
p118
asg29
L1000001606L
sg30
g114
sg31
(lp119
g8
ag9
ag14
ag18
ag29
ag21
ag23
ag33
ag25
ag19
ag30
ag12
ag10
ag22
ag24
ag16
ag26
asba(iProducts.DataCollector.plugins.DataMaps
ObjectMap
p120
(dp121
g8
I1
sg9
S'00:03:31:7D:5C:00'
p122
sg10
g11
sg12
g13
sg14
S'DC SER 162.93.201.0/26 RDNT AUTO - PDV Kontiki DMZ'
p123
sg16
S'Vlan850'
p124
sg18
I1
sg19
S'propVirtual_64'
p125
sg21
I1500
sg22
S''
sg23
I0
sg24
g124
sg25
I124
sg26
(lp126
S'162.93.201.60/26'
p127
aS'162.93.201.62/26'
p128
asg29
L999997525L
sg30
g124
sg31
(lp129
g8
ag9
ag14
ag18
ag29
ag21
ag23
ag33
ag25
ag19
ag30
ag12
ag10
ag22
ag24
ag16
ag26
asba(iProducts.DataCollector.plugins.DataMaps
ObjectMap
p130
(dp131
g8
I1
sg9
S'00:03:31:7D:5C:00'
p132
sg10
g11
sg12
g13
sg14
S'DC SER 10.104.86.0_/24 RDNT AUTO - PDV Server Segment#5 10.104.'
p133
sg16
S'Vlan801'
p134
sg18
I1
sg19
S'propVirtual_64'
p135
sg21
I1500
sg22
S''
sg23
I0
sg24
g134
sg25
I123
sg26
(lp136
S'10.104.86.254/24'
p137
asg29
L1000000311L
sg30
g134
sg31
(lp138
g8
ag9
ag14
ag18
ag29
ag21
ag23
ag33
ag25
ag19
ag30
ag12
ag10
ag22
ag24
ag16
ag26
asba(iProducts.DataCollector.plugins.DataMaps
ObjectMap
p139
(dp140
g8
I1
sg9
S'00:03:31:7D:5C:00'
p141
sg10
g11
sg12
g13
sg14
S'DC SER 10.104.94.0/24 RDNT AUTO - PDV CSIM_BRS segment'
p142
sg16
S'Vlan946'
p143
sg18
I1
sg19
S'propVirtual_64'
p144
sg21
I1500
sg22
S''
sg23
I0
sg24
g143
sg25
I131
sg26
(lp145
S'10.104.94.254/24'
p146
aS'10.104.94.248/24'
p147
asg29
L999999724L
sg30
g143
sg31
(lp148
g8
ag9
ag14
ag18
ag29
ag21
ag23
ag33
ag25
ag19
ag30
ag12
ag10
ag22
ag24
ag16
ag26
asba(iProducts.DataCollector.plugins.DataMaps
ObjectMap
p149
(dp150
g8
I1
sg9
S'00:03:31:7D:5C:00'
p151
sg10
g11
sg12
g13
sg14
S'DC SER 10.105.229.192/28 RDNT AUTO - DNS Dev Oracle Tier'
p152
sg16
S'Vlan2474'
p153
sg18
I1
sg19
S'propVirtual_64'
p154
sg21
I1500
sg22
S''
sg23
I0
sg24
g153
sg25
I291
sg26
(lp155
S'10.105.229.204/28'
p156
aS'10.105.229.206/28'
p157
asg29
L999997548L
sg30
g153
sg31
(lp158
g8
ag9
ag14
ag18
ag29
ag21
ag23
ag33
ag25
ag19
ag30
ag12
ag10
ag22
ag24
ag16
ag26
asba(iProducts.DataCollector.plugins.DataMaps
ObjectMap
p159
(dp160
g8
I1
sg9
S'00:03:31:7D:5C:00'
p161
sg10
g11
sg12
g13
sg14
S'DC SER VLAN947_MCAST_FOR_CASM RDNT AUTO - For MULTICAST ONLY on'
p162
sg16
S'Vlan947'
p163
sg18
I1
sg19
S'propVirtual_64'
p164
sg21
I1500
sg22
S''
sg23
I0
sg24
g163
sg25
I132
sg26
(lp165
S'192.168.144.113/30'
p166
asg29
L1000001288L
sg30
g163
sg31
(lp167
g8
ag9
ag14
ag18
ag29
ag21
ag23
ag33
ag25
ag19
ag30
ag12
ag10
ag22
ag24
ag16
ag26
asba(iProducts.DataCollector.plugins.DataMaps
ObjectMap
p168
(dp169
g8
I1
sg9
S'00:03:31:7D:5C:00'
p170
sg10
g11
sg12
g13
sg14
S'DC SER 10.105.192.0/24 RDNT AUTO - ESX CONSOLE'
p171
sg16
S'Vlan2200'
p172
sg18
I1
sg19
S'propVirtual_64'
p173
sg21
I1500
sg22
S''
sg23
I0
sg24
g172
sg25
I302
sg26
(lp174
S'10.105.192.254/24'
p175
aS'10.105.192.248/24'
p176
asg29
L999998226L
sg30
g172
sg31
(lp177
g8
ag9
ag14
ag18
ag29
ag21
ag23
ag33
ag25
ag19
ag30
ag12
ag10
ag22
ag24
ag16
ag26
asba(iProducts.DataCollector.plugins.DataMaps
ObjectMap
p178
(dp179
g8
I1
sg9
S'00:03:31:7D:5C:00'
p180
sg10
g11
sg12
g13
sg14
S'DC SER 10.104.90.0_/24 RDNT AUTO - PDV GSX Server Segment 10.10'
p181
sg16
S'Vlan10'
p182
sg18
I1
sg19
S'propVirtual_64'
p183
sg21
I1500
sg22
S''
sg23
I0
sg24
g182
sg25
I184
sg26
(lp184
S'10.104.90.254/24'
p185
aS'10.104.90.248/24'
p186
asg29
L1000001360L
sg30
g182
sg31
(lp187
g8
ag9
ag14
ag18
ag29
ag21
ag23
ag33
ag25
ag19
ag30
ag12
ag10
ag22
ag24
ag16
ag26
asba(iProducts.DataCollector.plugins.DataMaps
ObjectMap
p188
(dp189
g8
I1
sg9
S'00:03:31:7D:5C:00'
p190
sg10
g11
sg12
g13
sg14
S'DC SER 10.104.120.0/24 RDNT AUTO - PDV GreenField'
p191
sg16
S'Vlan16'
p192
sg18
I1
sg19
S'propVirtual_64'
p193
sg21
I1500
sg22
S''
sg23
I0
sg24
g192
sg25
I196
sg26
(lp194
S'10.104.120.254/24'
p195
asg29
L999998630L
sg30
g192
sg31
(lp196
g8
ag9
ag14
ag18
ag29
ag21
ag23
ag33
ag25
ag19
ag30
ag12
ag10
ag22
ag24
ag16
ag26
asba(iProducts.DataCollector.plugins.DataMaps
ObjectMap
p197
(dp198
g8
I1
sg9
S'00:03:31:7D:5C:00'
p199
sg10
g11
sg12
g13
sg14
S'DC SER 10.104.132+177.0/24 RDNT AUTO - PDV MARS DEV 10.104.[132'
p200
sg16
S'Vlan970'
p201
sg18
I1
sg19
S'propVirtual_64'
p202
sg21
I1500
sg22
S''
sg23
I0
sg24
g201
sg25
I134
sg26
(lp203
S'10.104.132.248/24'
p204
aS'10.104.177.254/24'
p205
aS'10.104.177.248/24'
p206
aS'10.104.132.254/24'
p207
asg29
L999999852L
sg30
g201
sg31
(lp208
g8
ag9
ag14
ag18
ag29
ag21
ag23
ag33
ag25
ag19
ag30
ag12
ag10
ag22
ag24
ag16
ag26
asba(iProducts.DataCollector.plugins.DataMaps
ObjectMap
p209
(dp210
g8
I1
sg9
S'00:03:31:7D:5C:00'
p211
sg10
g11
sg12
g13
sg14
S'DC SER VLAN945_MCAST_FOR_CASM RDNT AUTO - For MULTICAST ONLY on'
p212
sg16
S'Vlan945'
p213
sg18
I1
sg19
S'propVirtual_64'
p214
sg21
I1500
sg22
S''
sg23
I0
sg24
g213
sg25
I130
sg26
(lp215
S'192.168.144.109/30'
p216
asg29
L999999434L
sg30
g213
sg31
(lp217
g8
ag9
ag14
ag18
ag29
ag21
ag23
ag33
ag25
ag19
ag30
ag12
ag10
ag22
ag24
ag16
ag26
asba(iProducts.DataCollector.plugins.DataMaps
ObjectMap
p218
(dp219
g8
I1
sg9
S'00:03:31:7D:5C:00'
p220
sg10
g11
sg12
g13
sg14
S'DC SER 10.105.228.96/28 RDNT AUTO - CLEARS Web/App'
p221
sg16
S'Vlan2414'
p222
sg18
I1
sg19
S'propVirtual_64'
p223
sg21
I1500
sg22
S''
sg23
I0
sg24
g222
sg25
I226
sg26
(lp224
S'10.105.228.110/28'
p225
aS'10.105.228.108/28'
p226
asg29
L1000000084L
sg30
g222
sg31
(lp227
g8
ag9
ag14
ag18
ag29
ag21
ag23
ag33
ag25
ag19
ag30
ag12
ag10
ag22
ag24
ag16
ag26
asba(iProducts.DataCollector.plugins.DataMaps
ObjectMap
p228
(dp229
g8
I1
sg9
S'00:03:31:7D:5C:00'
p230
sg10
g11
sg12
g13
sg14
S'DC SER 10.105.228.64/28 RDNT AUTO - PDV MARS'
p231
sg16
S'Vlan2412'
p232
sg18
I1
sg19
S'propVirtual_64'
p233
sg21
I1500
sg22
S''
sg23
I0
sg24
g232
sg25
I223
sg26
(lp234
S'10.105.228.76/28'
p235
aS'10.105.228.78/28'
p236
asg29
L999998918L
sg30
g232
sg31
(lp237
g8
ag9
ag14
ag18
ag29
ag21
ag23
ag33
ag25
ag19
ag30
ag12
ag10
ag22
ag24
ag16
ag26
asba(iProducts.DataCollector.plugins.DataMaps
ObjectMap
p238
(dp239
g8
I1
sg9
S'00:03:31:7D:5C:00'
p240
sg10
g11
sg12
g13
sg14
S'DC SER 10.104.92.0_/24 RDNT AUTO - PDV ESX Server Segment 10.10'
p241
sg16
S'Vlan12'
p242
sg18
I1
sg19
S'propVirtual_64'
p243
sg21
I1500
sg22
S''
sg23
I0
sg24
g242
sg25
I187
sg26
(lp244
S'10.104.92.248/24'
p245
aS'10.104.92.254/24'
p246
asg29
L999999546L
sg30
g242
sg31
(lp247
g8
ag9
ag14
ag18
ag29
ag21
ag23
ag33
ag25
ag19
ag30
ag12
ag10
ag22
ag24
ag16
ag26
asba(iProducts.DataCollector.plugins.DataMaps
ObjectMap
p248
(dp249
g8
I1
sg9
S'00:03:31:7D:5C:00'
p250
sg10
g11
sg12
g13
sg14
S'DC SER 10.104.101.0_/24 RDNT AUTO - PDV Server Segment#3 10.104'
p251
sg16
S'Vlan942'
p252
sg18
I1
sg19
S'propVirtual_64'
p253
sg21
I1500
sg22
S''
sg23
I0
sg24
g252
sg25
I127
sg26
(lp254
S'10.104.101.254/24'
p255
aS'10.104.101.248/24'
p256
asg29
L1000000991L
sg30
g252
sg31
(lp257
g8
ag9
ag14
ag18
ag29
ag21
ag23
ag33
ag25
ag19
ag30
ag12
ag10
ag22
ag24
ag16
ag26
asba(iProducts.DataCollector.plugins.DataMaps
ObjectMap
p258
(dp259
g8
I1
sg9
S'00:03:31:7D:5C:00'
p260
sg10
g11
sg12
g13
sg14
S'DC SER VLAN944_MCAST_FOR_CASM RDNT AUTO - For MULTICAST ONLY on'
p261
sg16
S'Vlan944'
p262
sg18
I1
sg19
S'propVirtual_64'
p263
sg21
I1500
sg22
S''
sg23
I0
sg24
g262
sg25
I129
sg26
(lp264
S'192.168.144.105/30'
p265
asg29
L1000000111L
sg30
g262
sg31
(lp266
g8
ag9
ag14
ag18
ag29
ag21
ag23
ag33
ag25
ag19
ag30
ag12
ag10
ag22
ag24
ag16
ag26
asba(iProducts.DataCollector.plugins.DataMaps
ObjectMap
p267
(dp268
g8
I2
sg9
S'00:03:31:7D:5C:00'
p269
sg10
g11
sg12
g13
sg14
S'DC SER 10.105.214.0/27 RDNT AUTO - ACCPT MARS'
p270
sg16
S'Vlan2400'
p271
sg18
I2
sg19
S'propVirtual_64'
p272
sg21
I1500
sg22
S''
sg23
I0
sg24
g271
sg25
I221
sg26
(lp273
S'10.105.214.30/27'
p274
asg29
L1000000874L
sg30
g271
sg31
(lp275
g8
ag9
ag14
ag18
ag29
ag21
ag23
ag33
ag25
ag19
ag30
ag12
ag10
ag22
ag24
ag16
ag26
asba(iProducts.DataCollector.plugins.DataMaps
ObjectMap
p276
(dp277
g8
I1
sg9
S'00:03:31:7D:5C:00'
p278
sg10
g11
sg12
g13
sg14
S'DC SER VLAN6_MCAST_FOR_CASM RDNT AUTO - For MULTICAST ONLY on L'
p279
sg16
S'Vlan6'
p280
sg18
I1
sg19
S'propVirtual_64'
p281
sg21
I1500
sg22
S''
sg23
I0
sg24
g280
sg25
I116
sg26
(lp282
S'192.168.144.121/30'
p283
asg29
L999999327L
sg30
g280
sg31
(lp284
g8
ag9
ag14
ag18
ag29
ag21
ag23
ag33
ag25
ag19
ag30
ag12
ag10
ag22
ag24
ag16
ag26
asba(iProducts.DataCollector.plugins.DataMaps
ObjectMap
p285
(dp286
g8
I1
sg9
S'00:03:31:7D:5C:00'
p287
sg10
g11
sg12
g13
sg14
S'DC CORE RBBK1BDC RDNT AUTO - PDC3 PDV rmpg4bdc Ten4/2 to rbbk1b'
p288
sg16
S'TenGigabitEthernet4/2'
p289
sg18
I1
sg19
S'ethernetCsmacd_64'
p290
sg21
I1500
sg22
S''
sg23
I3
sg24
g289
sg25
I236
sg26
(lp291
S'10.104.129.42/30'
p292
asg29
L2856L
sg30
S'TenGigabitEthernet4_2'
p293
sg31
(lp294
g8
ag9
ag14
ag18
ag29
ag21
ag23
ag33
ag25
ag19
ag30
ag12
ag10
ag22
ag24
ag16
ag26
asba(iProducts.DataCollector.plugins.DataMaps
ObjectMap
p295
(dp296
g8
I1
sg9
S'00:03:31:7D:5C:00'
p297
sg10
g11
sg12
g13
sg14
S'DC SER 162.93.132.144_/29 RDNT AUTO - PDC3 PDV Market Data Cybe'
p298
sg16
S'Vlan104'
p299
sg18
I1
sg19
S'propVirtual_64'
p300
sg21
I1500
sg22
S''
sg23
I0
sg24
g299
sg25
I170
sg26
(lp301
S'162.93.132.148/29'
p302
aS'162.93.132.150/29'
p303
asg29
L999999529L
sg30
g299
sg31
(lp304
g8
ag9
ag14
ag18
ag29
ag21
ag23
ag33
ag25
ag19
ag30
ag12
ag10
ag22
ag24
ag16
ag26
asba(iProducts.DataCollector.plugins.DataMaps
ObjectMap
p305
(dp306
g8
I1
sg9
S'00:03:31:7D:5C:00'
p307
sg10
g11
sg12
g13
sg14
S'DC SER 10.104.96.0_/24 RDNT AUTO - PDV Server Segment#7 10.104.'
p308
sg16
S'Vlan14'
p309
sg18
I1
sg19
S'propVirtual_64'
p310
sg21
I1500
sg22
S''
sg23
I0
sg24
g309
sg25
I192
sg26
(lp311
S'10.104.96.248/24'
p312
aS'10.104.96.254/24'
p313
asg29
L1000001214L
sg30
g309
sg31
(lp314
g8
ag9
ag14
ag18
ag29
ag21
ag23
ag33
ag25
ag19
ag30
ag12
ag10
ag22
ag24
ag16
ag26
asba(iProducts.DataCollector.plugins.DataMaps
ObjectMap
p315
(dp316
g8
I1
sg9
S'00:03:31:7D:5C:00'
p317
sg10
g11
sg12
g13
sg14
S'DC SER 10.104.202.64_/26 RDNT AUTO - PDV Market Data Secure Mul'
p318
sg16
S'Vlan101'
p319
sg18
I1
sg19
S'propVirtual_64'
p320
sg21
I1500
sg22
S''
sg23
I0
sg24
g319
sg25
I119
sg26
(lp321
S'10.104.202.126/26'
p322
aS'162.93.138.126/25'
p323
asg29
L999999995L
sg30
g319
sg31
(lp324
g8
ag9
ag14
ag18
ag29
ag21
ag23
ag33
ag25
ag19
ag30
ag12
ag10
ag22
ag24
ag16
ag26
asba(iProducts.DataCollector.plugins.DataMaps
ObjectMap
p325
(dp326
g8
I1
sg9
S'00:00:15:00:00:00'
p327
sg10
g11
sg12
g13
sg14
S''
sg16
S'EOBC0/0'
p328
sg18
I1
sg19
S'propVirtual_64'
p329
sg21
I1500
sg22
S''
sg23
I0
sg24
g328
sg25
I105
sg26
(lp330
S'127.0.0.51/8'
p331
asg29
L99999110L
sg30
S'EOBC0_0'
p332
sg31
(lp333
g8
ag9
ag14
ag18
ag29
ag21
ag23
ag33
ag25
ag19
ag30
ag12
ag10
ag22
ag24
ag16
ag26
asba(iProducts.DataCollector.plugins.DataMaps
ObjectMap
p334
(dp335
g8
I1
sg9
S'00:03:31:7D:5C:00'
p336
sg10
g11
sg12
g13
sg14
S'DC SER 10.104.104,105,113,119.0/24 RDNT AUTO - PDV Lights Out s'
p337
sg16
S'Vlan971'
p338
sg18
I1
sg19
S'propVirtual_64'
p339
sg21
I1500
sg22
S''
sg23
I0
sg24
g338
sg25
I135
sg26
(lp340
S'10.104.113.254/24'
p341
aS'10.104.119.254/24'
p342
aS'10.104.105.254/24'
p343
aS'10.104.104.254/24'
p344
asg29
L999999021L
sg30
g338
sg31
(lp345
g8
ag9
ag14
ag18
ag29
ag21
ag23
ag33
ag25
ag19
ag30
ag12
ag10
ag22
ag24
ag16
ag26
asba(iProducts.DataCollector.plugins.DataMaps
ObjectMap
p346
(dp347
g8
I1
sg9
S'00:03:31:7D:5C:00'
p348
sg10
g11
sg12
g13
sg14
S'DC MF 10.104.131.0/24 RDNT AUTO PDC3 PDV Mainframe M24 zLinux C'
p349
sg16
S'Vlan972'
p350
sg18
I1
sg19
S'propVirtual_64'
p351
sg21
I1500
sg22
S''
sg23
I0
sg24
g350
sg25
I209
sg26
(lp352
S'10.104.131.254/24'
p353
aS'10.104.131.248/24'
p354
asg29
L999998961L
sg30
g350
sg31
(lp355
g8
ag9
ag14
ag18
ag29
ag21
ag23
ag33
ag25
ag19
ag30
ag12
ag10
ag22
ag24
ag16
ag26
asba(iProducts.DataCollector.plugins.DataMaps
ObjectMap
p356
(dp357
g8
I1
sg9
S'00:03:31:7D:5C:00'
p358
sg10
g11
sg12
g13
sg14
S'DC SER VLAN7_MCAST_FOR_CASM RDNT AUTO - For MULTICAST ONLY on L'
p359
sg16
S'Vlan7'
p360
sg18
I1
sg19
S'propVirtual_64'
p361
sg21
I1500
sg22
S''
sg23
I0
sg24
g360
sg25
I117
sg26
(lp362
S'192.168.144.125/30'
p363
asg29
L999998109L
sg30
g360
sg31
(lp364
g8
ag9
ag14
ag18
ag29
ag21
ag23
ag33
ag25
ag19
ag30
ag12
ag10
ag22
ag24
ag16
ag26
asba(iProducts.DataCollector.plugins.DataMaps
ObjectMap
p365
(dp366
g8
I1
sg9
S'00:03:31:7D:5C:00'
p367
sg10
g11
sg12
g13
sg14
S'DC SER 162.93.138.128/25 RDNT AUTO - PDV Market Data MSS Quote'
p368
sg16
S'Vlan102'
p369
sg18
I1
sg19
S'propVirtual_64'
p370
sg21
I1500
sg22
S''
sg23
I0
sg24
g369
sg25
I120
sg26
(lp371
S'162.93.138.252/25'
p372
aS'162.93.138.254/25'
p373
asg29
L1000000605L
sg30
g369
sg31
(lp374
g8
ag9
ag14
ag18
ag29
ag21
ag23
ag33
ag25
ag19
ag30
ag12
ag10
ag22
ag24
ag16
ag26
asba(iProducts.DataCollector.plugins.DataMaps
ObjectMap
p375
(dp376
g8
I1
sg9
S'00:03:31:7D:5C:00'
p377
sg10
g11
sg12
g13
sg14
S'DC SER 10.104.89.0_/24 RDNT AUTO - PDV ESX Server Segment 10.10'
p378
sg16
S'Vlan9'
p379
sg18
I1
sg19
S'propVirtual_64'
p380
sg21
I1500
sg22
S''
sg23
I0
sg24
g379
sg25
I175
sg26
(lp381
S'10.104.89.254/24'
p382
aS'10.104.89.248/24'
p383
asg29
L999998890L
sg30
g379
sg31
(lp384
g8
ag9
ag14
ag18
ag29
ag21
ag23
ag33
ag25
ag19
ag30
ag12
ag10
ag22
ag24
ag16
ag26
asba(iProducts.DataCollector.plugins.DataMaps
ObjectMap
p385
(dp386
g8
I2
sg9
S'00:03:31:7D:5C:00'
p387
sg10
g11
sg12
g13
sg14
S'WIP-DC SER 10.104.87.0/24 RDNT AUTO - PDV Server Segment for Bo'
p388
sg16
S'Vlan969'
p389
sg18
I2
sg19
S'propVirtual_64'
p390
sg21
I1500
sg22
S''
sg23
I0
sg24
g389
sg25
I168
sg26
(lp391
S'10.104.87.254/24'
p392
asg29
L999997724L
sg30
g389
sg31
(lp393
g8
ag9
ag14
ag18
ag29
ag21
ag23
ag33
ag25
ag19
ag30
ag12
ag10
ag22
ag24
ag16
ag26
asba(iProducts.DataCollector.plugins.DataMaps
ObjectMap
p394
(dp395
g8
I1
sg9
S'00:03:31:7D:5C:00'
p396
sg10
g11
sg12
g13
sg14
S'DC SER 10.104.100.0_/24 RDNT AUTO - PDV Server Segment#2 10.104'
p397
sg16
S'Vlan941'
p398
sg18
I1
sg19
S'propVirtual_64'
p399
sg21
I1500
sg22
S''
sg23
I0
sg24
g398
sg25
I126
sg26
(lp400
S'10.104.100.254/24'
p401
asg29
L999998649L
sg30
g398
sg31
(lp402
g8
ag9
ag14
ag18
ag29
ag21
ag23
ag33
ag25
ag19
ag30
ag12
ag10
ag22
ag24
ag16
ag26
asba(iProducts.DataCollector.plugins.DataMaps
ObjectMap
p403
(dp404
g8
I1
sg9
S'00:03:31:7D:5C:00'
p405
sg10
g11
sg12
g13
sg14
S'DC SER 10.104.76.0/26 RDNT AUTO - PDV Tivoli Development Networ'
p406
sg16
S'Vlan943'
p407
sg18
I1
sg19
S'propVirtual_64'
p408
sg21
I1500
sg22
S''
sg23
I0
sg24
g407
sg25
I128
sg26
(lp409
S'10.104.76.62/26'
p410
asg29
L999997390L
sg30
g407
sg31
(lp411
g8
ag9
ag14
ag18
ag29
ag21
ag23
ag33
ag25
ag19
ag30
ag12
ag10
ag22
ag24
ag16
ag26
asba(iProducts.DataCollector.plugins.DataMaps
ObjectMap
p412
(dp413
g8
I1
sg9
S'00:03:31:7D:5C:00'
p414
sg10
g11
sg12
g13
sg14
S'DC SER 10.105.230.0/28-Cambridge-App'
p415
sg16
S'Vlan2478'
p416
sg18
I1
sg19
S'propVirtual_64'
p417
sg21
I1500
sg22
S''
sg23
I0
sg24
g416
sg25
I285
sg26
(lp418
S'10.105.230.12/28'
p419
aS'10.105.230.14/28'
p420
asg29
L999999364L
sg30
g416
sg31
(lp421
g8
ag9
ag14
ag18
ag29
ag21
ag23
ag33
ag25
ag19
ag30
ag12
ag10
ag22
ag24
ag16
ag26
asba(iProducts.DataCollector.plugins.DataMaps
ObjectMap
p422
(dp423
g8
I1
sg9
S'00:03:31:7D:5C:00'
p424
sg10
g11
sg12
g13
sg14
S'DC SER PDV CSM SERVER DOUBLE NAT FLOWS'
p425
sg16
S'Vlan5'
p426
sg18
I1
sg19
S'propVirtual_64'
p427
sg21
I1500
sg22
S''
sg23
I0
sg24
g426
sg25
I115
sg26
(lp428
S'10.104.111.46/28'
p429
aS'10.104.111.42/28'
p430
asg29
L999999850L
sg30
g426
sg31
(lp431
g8
ag9
ag14
ag18
ag29
ag21
ag23
ag33
ag25
ag19
ag30
ag12
ag10
ag22
ag24
ag16
ag26
asba(iProducts.DataCollector.plugins.DataMaps
ObjectMap
p432
(dp433
g8
I1
sg9
S'00:03:31:7D:5C:00'
p434
sg10
g11
sg12
g13
sg14
S'DC SER 10.104.97.0/24 RDNT AUTO - PDV Infosys VMWare Sement 10.'
p435
sg16
S'Vlan15'
p436
sg18
I1
sg19
S'propVirtual_64'
p437
sg21
I1500
sg22
S''
sg23
I0
sg24
g436
sg25
I193
sg26
(lp438
S'10.104.97.254/24'
p439
asg29
L999999423L
sg30
g436
sg31
(lp440
g8
ag9
ag14
ag18
ag29
ag21
ag23
ag33
ag25
ag19
ag30
ag12
ag10
ag22
ag24
ag16
ag26
asba(iProducts.DataCollector.plugins.DataMaps
ObjectMap
p441
(dp442
g8
I1
sg9
S'00:03:31:7D:5C:00'
p443
sg10
g11
sg12
g13
sg14
S'DC SER 162.93.124.0/22 RDNT AUTO - PDV HiperMail Servers'
p444
sg16
S'Vlan200'
p445
sg18
I1
sg19
S'propVirtual_64'
p446
sg21
I1500
sg22
S''
sg23
I0
sg24
g445
sg25
I179
sg26
(lp447
S'162.93.124.13/28'
p448
asg29
L999997457L
sg30
g445
sg31
(lp449
g8
ag9
ag14
ag18
ag29
ag21
ag23
ag33
ag25
ag19
ag30
ag12
ag10
ag22
ag24
ag16
ag26
asba(iProducts.DataCollector.plugins.DataMaps
ObjectMap
p450
(dp451
g8
I1
sg9
S'00:03:31:7D:5C:00'
p452
sg10
g11
sg12
g13
sg14
S'DC SER 10.105.228.80/28 RDNT AUTO - PDV INFOBLOX'
p453
sg16
S'Vlan2413'
p454
sg18
I1
sg19
S'propVirtual_64'
p455
sg21
I1500
sg22
S''
sg23
I0
sg24
g454
sg25
I225
sg26
(lp456
S'10.105.228.94/28'
p457
asg29
L1000000386L
sg30
g454
sg31
(lp458
g8
ag9
ag14
ag18
ag29
ag21
ag23
ag33
ag25
ag19
ag30
ag12
ag10
ag22
ag24
ag16
ag26
asba(iProducts.DataCollector.plugins.DataMaps
ObjectMap
p459
(dp460
g8
I1
sg9
S'00:03:31:7D:5C:00'
p461
sg10
g11
sg12
g13
sg14
S'DC SER 10.105.213.224/27 RDNT AUTO - RSRXG01BDC'
p462
sg16
S'Vlan2607'
p463
sg18
I1
sg19
S'propVirtual_64'
p464
sg21
I1500
sg22
S''
sg23
I0
sg24
g463
sg25
I242
sg26
(lp465
S'10.105.213.253/27'
p466
asg29
L1000000230L
sg30
g463
sg31
(lp467
g8
ag9
ag14
ag18
ag29
ag21
ag23
ag33
ag25
ag19
ag30
ag12
ag10
ag22
ag24
ag16
ag26
asba(iProducts.DataCollector.plugins.DataMaps
ObjectMap
p468
(dp469
g8
I2
sg9
S'00:03:31:7D:5C:00'
p470
sg10
g11
sg12
g13
sg14
S'DC SER 10.105.231.96/28 RDNT AUTO - SI2_PVS_DB_SQL_Tier'
p471
sg16
S'Vlan2500'
p472
sg18
I2
sg19
S'propVirtual_64'
p473
sg21
I1500
sg22
S''
sg23
I0
sg24
g472
sg25
I297
sg26
(lp474
S'10.105.231.108/28'
p475
asg29
L999997654L
sg30
g472
sg31
(lp476
g8
ag9
ag14
ag18
ag29
ag21
ag23
ag33
ag25
ag19
ag30
ag12
ag10
ag22
ag24
ag16
ag26
asba(iProducts.DataCollector.plugins.DataMaps
ObjectMap
p477
(dp478
g8
I1
sg9
S'00:03:31:7D:5C:00'
p479
sg10
g11
sg12
g13
sg14
S'DC SER 10.105.228.112/28 RDNT AUTO - CLEARS Database'
p480
sg16
S'Vlan2415'
p481
sg18
I1
sg19
S'propVirtual_64'
p482
sg21
I1500
sg22
S''
sg23
I0
sg24
g481
sg25
I227
sg26
(lp483
S'10.105.228.125/28'
p484
asg29
L999997444L
sg30
g481
sg31
(lp485
g8
ag9
ag14
ag18
ag29
ag21
ag23
ag33
ag25
ag19
ag30
ag12
ag10
ag22
ag24
ag16
ag26
asba(iProducts.DataCollector.plugins.DataMaps
ObjectMap
p486
(dp487
g8
I1
sg9
S'00:03:31:7D:5C:00'
p488
sg10
g11
sg12
g13
sg14
S'DC SER 162.93.124.16/22 RDNT AUTO - FIX PDV'
p489
sg16
S'Vlan201'
p490
sg18
I1
sg19
S'propVirtual_64'
p491
sg21
I1500
sg22
S''
sg23
I0
sg24
g490
sg25
I180
sg26
(lp492
S'162.93.124.30/28'
p493
asg29
L999998621L
sg30
g490
sg31
(lp494
g8
ag9
ag14
ag18
ag29
ag21
ag23
ag33
ag25
ag19
ag30
ag12
ag10
ag22
ag24
ag16
ag26
asba(iProducts.DataCollector.plugins.DataMaps
ObjectMap
p495
(dp496
g8
I1
sg9
S'00:03:31:7D:5C:00'
p497
sg10
g11
sg12
g13
sg14
S'DC SER 10.104.95.0_/24 RDNT AUTO - PDV Server Segment#6 10.104.'
p498
sg16
S'Vlan13'
p499
sg18
I1
sg19
S'propVirtual_64'
p500
sg21
I1500
sg22
S''
sg23
I0
sg24
g499
sg25
I191
sg26
(lp501
S'10.104.95.254/24'
p502
asg29
L999999838L
sg30
g499
sg31
(lp503
g8
ag9
ag14
ag18
ag29
ag21
ag23
ag33
ag25
ag19
ag30
ag12
ag10
ag22
ag24
ag16
ag26
asba(iProducts.DataCollector.plugins.DataMaps
ObjectMap
p504
(dp505
g8
I1
sg9
S'00:03:31:7D:5C:00'
p506
sg10
g11
sg12
g13
sg14
S'DC SER 10.105.228.48/28 RDNT AUTO - PDV CIMS-APP'
p507
sg16
S'Vlan2411'
p508
sg18
I1
sg19
S'propVirtual_64'
p509
sg21
I1500
sg22
S''
sg23
I0
sg24
g508
sg25
I219
sg26
(lp510
S'10.105.228.60/28'
p511
aS'10.105.228.62/28'
p512
asg29
L999998054L
sg30
g508
sg31
(lp513
g8
ag9
ag14
ag18
ag29
ag21
ag23
ag33
ag25
ag19
ag30
ag12
ag10
ag22
ag24
ag16
ag26
asba(iProducts.DataCollector.plugins.DataMaps
ObjectMap
p514
(dp515
g8
I1
sg9
S'00:03:31:7D:5C:00'
p516
sg10
g11
sg12
g13
sg14
S'DC SER 10.104.202.192/26 RDNT AUTO - PDV Market Data Common Dis'
p517
sg16
S'Vlan103'
p518
sg18
I1
sg19
S'propVirtual_64'
p519
sg21
I1500
sg22
S''
sg23
I0
sg24
g518
sg25
I121
sg26
(lp520
S'10.104.202.254/26'
p521
asg29
L999999931L
sg30
g518
sg31
(lp522
g8
ag9
ag14
ag18
ag29
ag21
ag23
ag33
ag25
ag19
ag30
ag12
ag10
ag22
ag24
ag16
ag26
asba(iProducts.DataCollector.plugins.DataMaps
ObjectMap
p523
(dp524
g8
I1
sg9
S'00:03:31:7D:5C:00'
p525
sg10
g11
sg12
g13
sg14
S'DC SER 10.104.91.0_/24 RDNT AUTO - PDV ISCSI Testing vlan Serve'
p526
sg16
S'Vlan11'
p527
sg18
I1
sg19
S'propVirtual_64'
p528
sg21
I1500
sg22
S''
sg23
I0
sg24
g527
sg25
I186
sg26
(lp529
S'10.104.91.254/24'
p530
asg29
L999999005L
sg30
g527
sg31
(lp531
g8
ag9
ag14
ag18
ag29
ag21
ag23
ag33
ag25
ag19
ag30
ag12
ag10
ag22
ag24
ag16
ag26
asba(iProducts.DataCollector.plugins.DataMaps
ObjectMap
p532
(dp533
g8
I1
sg9
S'00:03:31:7D:5C:00'
p534
sg10
g11
sg12
g13
sg14
S'DC SER VLAN948_MCAST_FOR_CASM RDNT AUTO - For MULTICAST ONLY on'
p535
sg16
S'Vlan948'
p536
sg18
I1
sg19
S'propVirtual_64'
p537
sg21
I1500
sg22
S''
sg23
I0
sg24
g536
sg25
I133
sg26
(lp538
S'192.168.144.117/30'
p539
asg29
L999999042L
sg30
g536
sg31
(lp540
g8
ag9
ag14
ag18
ag29
ag21
ag23
ag33
ag25
ag19
ag30
ag12
ag10
ag22
ag24
ag16
ag26
asba(iProducts.DataCollector.plugins.DataMaps
ObjectMap
p541
(dp542
g8
I1
sg9
S'00:03:31:7D:5C:00'
p543
sg10
g11
sg12
g13
sg14
S''
sg16
S'unrouted VLAN 2608'
p544
sg18
I1
sg19
S'propVirtual_64'
p545
sg21
I1500
sg22
S''
sg23
I0
sg24
g544
sg25
I216
sg26
(lp546
sg29
L909L
sg30
g544
sg31
(lp547
g8
ag9
ag14
ag18
ag29
ag21
ag23
ag33
ag25
ag19
ag30
ag12
ag10
ag22
ag24
ag16
ag26
asba(iProducts.DataCollector.plugins.DataMaps
ObjectMap
p548
(dp549
g8
I2
sg9
S'00:03:31:7D:5C:00'
p550
sg10
g11
sg12
g13
sg14
S''
sg16
S'Vlan2608'
p551
sg18
I2
sg19
S'propVirtual_64'
p552
sg21
I1500
sg22
S''
sg23
I0
sg24
g551
sg25
I217
sg26
(lp553
sg29
L999999853L
sg30
g551
sg31
(lp554
g8
ag9
ag14
ag18
ag29
ag21
ag23
ag33
ag25
ag19
ag30
ag12
ag10
ag22
ag24
ag16
ag26
asba(iProducts.DataCollector.plugins.DataMaps
ObjectMap
p555
(dp556
g8
I1
sg9
S'00:03:31:7D:5C:00'
p557
sg10
g11
sg12
g13
sg14
S''
sg16
S'unrouted VLAN 2410'
p558
sg18
I1
sg19
S'propVirtual_64'
p559
sg21
I1500
sg22
S''
sg23
I0
sg24
g558
sg25
I212
sg26
(lp560
sg29
L813L
sg30
g558
sg31
(lp561
g8
ag9
ag14
ag18
ag29
ag21
ag23
ag33
ag25
ag19
ag30
ag12
ag10
ag22
ag24
ag16
ag26
asba(iProducts.DataCollector.plugins.DataMaps
ObjectMap
p562
(dp563
g8
I1
sg9
S'00:03:31:7D:5C:00'
p564
sg10
g11
sg12
g13
sg14
S''
sg16
S'unrouted VLAN 2408'
p565
sg18
I1
sg19
S'propVirtual_64'
p566
sg21
I1500
sg22
S''
sg23
I0
sg24
g565
sg25
I210
sg26
(lp567
sg29
L60L
sg30
g565
sg31
(lp568
g8
ag9
ag14
ag18
ag29
ag21
ag23
ag33
ag25
ag19
ag30
ag12
ag10
ag22
ag24
ag16
ag26
asba(iProducts.DataCollector.plugins.DataMaps
ObjectMap
p569
(dp570
g8
I1
sg9
S'00:03:31:7D:5C:00'
p571
sg10
g11
sg12
g13
sg14
S''
sg16
S'unrouted VLAN 2409'
p572
sg18
I1
sg19
S'propVirtual_64'
p573
sg21
I1500
sg22
S''
sg23
I0
sg24
g572
sg25
I211
sg26
(lp574
sg29
L706L
sg30
g572
sg31
(lp575
g8
ag9
ag14
ag18
ag29
ag21
ag23
ag33
ag25
ag19
ag30
ag12
ag10
ag22
ag24
ag16
ag26
asba(iProducts.DataCollector.plugins.DataMaps
ObjectMap
p576
(dp577
g8
I1
sg9
S'00:03:31:7D:5C:00'
p578
sg10
g11
sg12
g13
sg14
S''
sg16
S'unrouted VLAN 2463'
p579
sg18
I1
sg19
S'propVirtual_64'
p580
sg21
I1500
sg22
S''
sg23
I0
sg24
g579
sg25
I264
sg26
(lp581
sg29
L1231L
sg30
g579
sg31
(lp582
g8
ag9
ag14
ag18
ag29
ag21
ag23
ag33
ag25
ag19
ag30
ag12
ag10
ag22
ag24
ag16
ag26
asba(iProducts.DataCollector.plugins.DataMaps
ObjectMap
p583
(dp584
g8
I1
sg9
S'00:03:31:7D:5C:00'
p585
sg10
g11
sg12
g13
sg14
S''
sg16
S'unrouted VLAN 2411'
p586
sg18
I1
sg19
S'propVirtual_64'
p587
sg21
I1500
sg22
S''
sg23
I0
sg24
g586
sg25
I218
sg26
(lp588
sg29
L2058L
sg30
g586
sg31
(lp589
g8
ag9
ag14
ag18
ag29
ag21
ag23
ag33
ag25
ag19
ag30
ag12
ag10
ag22
ag24
ag16
ag26
asba(iProducts.DataCollector.plugins.DataMaps
ObjectMap
p590
(dp591
g8
I1
sg9
S'00:03:31:7D:5C:01'
p592
sg10
g11
sg12
g13
sg14
S''
sg16
S'unrouted VLAN 1'
p593
sg18
I1
sg19
S'propVirtual_64'
p594
sg21
I1500
sg22
S''
sg23
I0
sg24
g593
sg25
I137
sg26
(lp595
sg29
L884L
sg30
g593
sg31
(lp596
g8
ag9
ag14
ag18
ag29
ag21
ag23
ag33
ag25
ag19
ag30
ag12
ag10
ag22
ag24
ag16
ag26
asba(iProducts.DataCollector.plugins.DataMaps
ObjectMap
p597
(dp598
g8
I1
sg9
S'68:EF:BD:31:0A:3A'
p599
sg10
g11
sg12
g13
sg14
S''
sg16
S'Port-channel258'
p600
sg18
I1
sg19
S'propVirtual_64'
p601
sg21
I9216
sg22
S''
sg23
I0
sg24
g600
sg25
I136
sg26
(lp602
sg29
L3999999115L
sg30
g600
sg31
(lp603
g8
ag9
ag14
ag18
ag29
ag21
ag23
ag33
ag25
ag19
ag30
ag12
ag10
ag22
ag24
ag16
ag26
asba(iProducts.DataCollector.plugins.DataMaps
ObjectMap
p604
(dp605
g8
I1
sg9
S'00:03:31:7D:5F:EC'
p606
sg10
g11
sg12
g13
sg14
S''
sg16
S'unrouted VLAN 1004'
p607
sg18
I1
sg19
S'propVirtual_64'
p608
sg21
I1500
sg22
S''
sg23
I0
sg24
g607
sg25
I139
sg26
(lp609
sg29
L285L
sg30
g607
sg31
(lp610
g8
ag9
ag14
ag18
ag29
ag21
ag23
ag33
ag25
ag19
ag30
ag12
ag10
ag22
ag24
ag16
ag26
asba(iProducts.DataCollector.plugins.DataMaps
ObjectMap
p611
(dp612
g8
I1
sg9
S'00:03:31:7D:5F:EA'
p613
sg10
g11
sg12
g13
sg14
S''
sg16
S'unrouted VLAN 1002'
p614
sg18
I1
sg19
S'propVirtual_64'
p615
sg21
I1500
sg22
S''
sg23
I0
sg24
g614
sg25
I138
sg26
(lp616
sg29
L1002L
sg30
g614
sg31
(lp617
g8
ag9
ag14
ag18
ag29
ag21
ag23
ag33
ag25
ag19
ag30
ag12
ag10
ag22
ag24
ag16
ag26
asba(iProducts.DataCollector.plugins.DataMaps
ObjectMap
p618
(dp619
g8
I1
sg9
S'00:03:31:7D:5F:CB'
p620
sg10
g11
sg12
g13
sg14
S''
sg16
S'unrouted VLAN 971'
p621
sg18
I1
sg19
S'propVirtual_64'
p622
sg21
I1500
sg22
S''
sg23
I0
sg24
g621
sg25
I166
sg26
(lp623
sg29
L213L
sg30
g621
sg31
(lp624
g8
ag9
ag14
ag18
ag29
ag21
ag23
ag33
ag25
ag19
ag30
ag12
ag10
ag22
ag24
ag16
ag26
asba(iProducts.DataCollector.plugins.DataMaps
ObjectMap
p625
(dp626
g8
I1
sg9
S'00:11:93:3A:9E:CF'
p627
sg10
g11
sg12
g13
sg14
S'DC SER X02G2EBDC AUTO RDNT - PDV Layer 2 rmpg4bdc G1/24 to x02g'
p628
sg16
S'GigabitEthernet1/24'
p629
sg18
I1
sg19
S'ethernetCsmacd_64'
p630
sg21
I1500
sg22
S''
sg23
I3
sg24
g629
sg25
I24
sg26
(lp631
sg29
L999999306L
sg30
S'GigabitEthernet1_24'
p632
sg31
(lp633
g8
ag9
ag14
ag18
ag29
ag21
ag23
ag33
ag25
ag19
ag30
ag12
ag10
ag22
ag24
ag16
ag26
asba(iProducts.DataCollector.plugins.DataMaps
ObjectMap
p634
(dp635
g8
I1
sg9
S'00:03:31:7D:5C:00'
p636
sg10
g11
sg12
g13
sg14
S''
sg16
S'unrouted VLAN 3622'
p637
sg18
I1
sg19
S'propVirtual_64'
p638
sg21
I1500
sg22
S''
sg23
I0
sg24
g637
sg25
I322
sg26
(lp639
sg29
L380L
sg30
g637
sg31
(lp640
g8
ag9
ag14
ag18
ag29
ag21
ag23
ag33
ag25
ag19
ag30
ag12
ag10
ag22
ag24
ag16
ag26
asba(iProducts.DataCollector.plugins.DataMaps
ObjectMap
p641
(dp642
g8
I1
sg9
S'68:EF:BD:31:0A:39'
p643
sg10
g11
sg12
g13
sg14
S''
sg16
S'GigabitEthernet2/2'
p644
sg18
I1
sg19
S'ethernetCsmacd_64'
p645
sg21
I9216
sg22
S''
sg23
I3
sg24
g644
sg25
I26
sg26
(lp646
sg29
L999997151L
sg30
S'GigabitEthernet2_2'
p647
sg31
(lp648
g8
ag9
ag14
ag18
ag29
ag21
ag23
ag33
ag25
ag19
ag30
ag12
ag10
ag22
ag24
ag16
ag26
asba(iProducts.DataCollector.plugins.DataMaps
ObjectMap
p649
(dp650
g8
I1
sg9
S'68:EF:BD:31:0A:3A'
p651
sg10
g11
sg12
g13
sg14
S''
sg16
S'GigabitEthernet2/3'
p652
sg18
I1
sg19
S'ethernetCsmacd_64'
p653
sg21
I9216
sg22
S''
sg23
I3
sg24
g652
sg25
I27
sg26
(lp654
sg29
L1000000415L
sg30
S'GigabitEthernet2_3'
p655
sg31
(lp656
g8
ag9
ag14
ag18
ag29
ag21
ag23
ag33
ag25
ag19
ag30
ag12
ag10
ag22
ag24
ag16
ag26
asba(iProducts.DataCollector.plugins.DataMaps
ObjectMap
p657
(dp658
g8
I1
sg9
S'00:11:93:3A:9E:CB'
p659
sg10
g11
sg12
g13
sg14
S'WIP f4031bdc-nic1  Filer for ISCSI access'
p660
sg16
S'GigabitEthernet1/20'
p661
sg18
I2
sg19
S'ethernetCsmacd_64'
p662
sg21
I1500
sg22
S''
sg23
I3
sg24
g661
sg25
I20
sg26
(lp663
sg29
L1000000395L
sg30
S'GigabitEthernet1_20'
p664
sg31
(lp665
g8
ag9
ag14
ag18
ag29
ag21
ag23
ag33
ag25
ag19
ag30
ag12
ag10
ag22
ag24
ag16
ag26
asba(iProducts.DataCollector.plugins.DataMaps
ObjectMap
p666
(dp667
g8
I2
sg9
S'00:03:31:7D:5C:00'
p668
sg10
g11
sg12
g13
sg14
S''
sg16
S'GigabitEthernet1/21'
p669
sg18
I2
sg19
S'ethernetCsmacd_64'
p670
sg21
I1500
sg22
S''
sg23
I3
sg24
g669
sg25
I21
sg26
(lp671
sg29
L1000000558L
sg30
S'GigabitEthernet1_21'
p672
sg31
(lp673
g8
ag9
ag14
ag18
ag29
ag21
ag23
ag33
ag25
ag19
ag30
ag12
ag10
ag22
ag24
ag16
ag26
asba(iProducts.DataCollector.plugins.DataMaps
ObjectMap
p674
(dp675
g8
I1
sg9
S'00:11:93:3A:9E:CD'
p676
sg10
g11
sg12
g13
sg14
S'DC SER X02G3EBDC AUTO RDNT - PDV Layer 2 rmpg4bdc G1/22 to x02g'
p677
sg16
S'GigabitEthernet1/22'
p678
sg18
I1
sg19
S'ethernetCsmacd_64'
p679
sg21
I1500
sg22
S''
sg23
I3
sg24
g678
sg25
I22
sg26
(lp680
sg29
L999996220L
sg30
S'GigabitEthernet1_22'
p681
sg31
(lp682
g8
ag9
ag14
ag18
ag29
ag21
ag23
ag33
ag25
ag19
ag30
ag12
ag10
ag22
ag24
ag16
ag26
asba(iProducts.DataCollector.plugins.DataMaps
ObjectMap
p683
(dp684
g8
I2
sg9
S'00:11:93:3A:9E:CE'
p685
sg10
g11
sg12
g13
sg14
S'WIP - anue2bdc 1/1 Capture Port SPAN/Monitor'
p686
sg16
S'GigabitEthernet1/23'
p687
sg18
I2
sg19
S'ethernetCsmacd_64'
p688
sg21
I1500
sg22
S''
sg23
I3
sg24
g687
sg25
I23
sg26
(lp689
sg29
L1000001073L
sg30
S'GigabitEthernet1_23'
p690
sg31
(lp691
g8
ag9
ag14
ag18
ag29
ag21
ag23
ag33
ag25
ag19
ag30
ag12
ag10
ag22
ag24
ag16
ag26
asba(iProducts.DataCollector.plugins.DataMaps
ObjectMap
p692
(dp693
g8
I1
sg9
S'00:03:31:7D:5F:B0'
p694
sg10
g11
sg12
g13
sg14
S''
sg16
S'unrouted VLAN 944'
p695
sg18
I1
sg19
S'propVirtual_64'
p696
sg21
I1500
sg22
S''
sg23
I0
sg24
g695
sg25
I160
sg26
(lp697
sg29
L354L
sg30
g695
sg31
(lp698
g8
ag9
ag14
ag18
ag29
ag21
ag23
ag33
ag25
ag19
ag30
ag12
ag10
ag22
ag24
ag16
ag26
asba(iProducts.DataCollector.plugins.DataMaps
ObjectMap
p699
(dp700
g8
I1
sg9
S'68:EF:BD:31:0A:3B'
p701
sg10
g11
sg12
g13
sg14
S''
sg16
S'GigabitEthernet2/4'
p702
sg18
I1
sg19
S'ethernetCsmacd_64'
p703
sg21
I9216
sg22
S''
sg23
I3
sg24
g702
sg25
I28
sg26
(lp704
sg29
L1000001632L
sg30
S'GigabitEthernet2_4'
p705
sg31
(lp706
g8
ag9
ag14
ag18
ag29
ag21
ag23
ag33
ag25
ag19
ag30
ag12
ag10
ag22
ag24
ag16
ag26
asba(iProducts.DataCollector.plugins.DataMaps
ObjectMap
p707
(dp708
g8
I1
sg9
S'00:03:31:7D:5F:B1'
p709
sg10
g11
sg12
g13
sg14
S''
sg16
S'unrouted VLAN 945'
p710
sg18
I1
sg19
S'propVirtual_64'
p711
sg21
I1500
sg22
S''
sg23
I0
sg24
g710
sg25
I161
sg26
(lp712
sg29
L299L
sg30
g710
sg31
(lp713
g8
ag9
ag14
ag18
ag29
ag21
ag23
ag33
ag25
ag19
ag30
ag12
ag10
ag22
ag24
ag16
ag26
asba(iProducts.DataCollector.plugins.DataMaps
ObjectMap
p714
(dp715
g8
I1
sg9
S'00:03:31:7D:5C:00'
p716
sg10
g11
sg12
g13
sg14
S''
sg16
S'unrouted VLAN 2491'
p717
sg18
I1
sg19
S'propVirtual_64'
p718
sg21
I1500
sg22
S''
sg23
I0
sg24
g717
sg25
I344
sg26
(lp719
sg29
L673L
sg30
g717
sg31
(lp720
g8
ag9
ag14
ag18
ag29
ag21
ag23
ag33
ag25
ag19
ag30
ag12
ag10
ag22
ag24
ag16
ag26
asba(iProducts.DataCollector.plugins.DataMaps
ObjectMap
p721
(dp722
g8
I1
sg9
S'00:03:31:7D:5C:00'
p723
sg10
g11
sg12
g13
sg14
S''
sg16
S'unrouted VLAN 2492'
p724
sg18
I1
sg19
S'propVirtual_64'
p725
sg21
I1500
sg22
S''
sg23
I0
sg24
g724
sg25
I345
sg26
(lp726
sg29
L270L
sg30
g724
sg31
(lp727
g8
ag9
ag14
ag18
ag29
ag21
ag23
ag33
ag25
ag19
ag30
ag12
ag10
ag22
ag24
ag16
ag26
asba(iProducts.DataCollector.plugins.DataMaps
ObjectMap
p728
(dp729
g8
I1
sg9
S'00:03:31:7D:5C:00'
p730
sg10
g11
sg12
g13
sg14
S''
sg16
S'unrouted VLAN 2485'
p731
sg18
I1
sg19
S'propVirtual_64'
p732
sg21
I1500
sg22
S''
sg23
I0
sg24
g731
sg25
I340
sg26
(lp733
sg29
L1531L
sg30
g731
sg31
(lp734
g8
ag9
ag14
ag18
ag29
ag21
ag23
ag33
ag25
ag19
ag30
ag12
ag10
ag22
ag24
ag16
ag26
asba(iProducts.DataCollector.plugins.DataMaps
ObjectMap
p735
(dp736
g8
I2
sg9
S'00:03:31:7D:5C:00'
p737
sg10
g11
sg12
g13
sg14
S''
sg16
S'GigabitEthernet1/4'
p738
sg18
I2
sg19
S'ethernetCsmacd_64'
p739
sg21
I1500
sg22
S''
sg23
I3
sg24
g738
sg25
I4
sg26
(lp740
sg29
L1000001847L
sg30
S'GigabitEthernet1_4'
p741
sg31
(lp742
g8
ag9
ag14
ag18
ag29
ag21
ag23
ag33
ag25
ag19
ag30
ag12
ag10
ag22
ag24
ag16
ag26
asba(iProducts.DataCollector.plugins.DataMaps
ObjectMap
p743
(dp744
g8
I1
sg9
S'00:03:31:7D:5C:14'
p745
sg10
g11
sg12
g13
sg14
S''
sg16
S'unrouted VLAN 20'
p746
sg18
I1
sg19
S'propVirtual_64'
p747
sg21
I1500
sg22
S''
sg23
I0
sg24
g746
sg25
I342
sg26
(lp748
sg29
L421L
sg30
g746
sg31
(lp749
g8
ag9
ag14
ag18
ag29
ag21
ag23
ag33
ag25
ag19
ag30
ag12
ag10
ag22
ag24
ag16
ag26
asba(iProducts.DataCollector.plugins.DataMaps
ObjectMap
p750
(dp751
g8
I1
sg9
S'00:03:31:7D:5C:00'
p752
sg10
g11
sg12
g13
sg14
S''
sg16
S'unrouted VLAN 2490'
p753
sg18
I1
sg19
S'propVirtual_64'
p754
sg21
I1500
sg22
S''
sg23
I0
sg24
g753
sg25
I343
sg26
(lp755
sg29
L715L
sg30
g753
sg31
(lp756
g8
ag9
ag14
ag18
ag29
ag21
ag23
ag33
ag25
ag19
ag30
ag12
ag10
ag22
ag24
ag16
ag26
asba(iProducts.DataCollector.plugins.DataMaps
ObjectMap
p757
(dp758
g8
I1
sg9
S'00:03:31:7D:5C:00'
p759
sg10
g11
sg12
g13
sg14
S''
sg16
S'unrouted VLAN 2401'
p760
sg18
I1
sg19
S'propVirtual_64'
p761
sg21
I1500
sg22
S''
sg23
I0
sg24
g760
sg25
I281
sg26
(lp762
sg29
L1929L
sg30
g760
sg31
(lp763
g8
ag9
ag14
ag18
ag29
ag21
ag23
ag33
ag25
ag19
ag30
ag12
ag10
ag22
ag24
ag16
ag26
asba(iProducts.DataCollector.plugins.DataMaps
ObjectMap
p764
(dp765
g8
I2
sg9
S'00:11:93:3A:9E:BF'
p766
sg10
g11
sg12
g13
sg14
S'DC SER RMPG5BDC_1/8 AUTO RDNT - rmpg4bdc g1/8 (etherchannel por'
p767
sg16
S'GigabitEthernet1/8'
p768
sg18
I2
sg19
S'ethernetCsmacd_64'
p769
sg21
I1500
sg22
S''
sg23
I3
sg24
g768
sg25
I8
sg26
(lp770
sg29
L1000000044L
sg30
S'GigabitEthernet1_8'
p771
sg31
(lp772
g8
ag9
ag14
ag18
ag29
ag21
ag23
ag33
ag25
ag19
ag30
ag12
ag10
ag22
ag24
ag16
ag26
asba(iProducts.DataCollector.plugins.DataMaps
ObjectMap
p773
(dp774
g8
I1
sg9
S'00:03:31:7D:5C:00'
p775
sg10
g11
sg12
g13
sg14
S''
sg16
S'unrouted VLAN 2472'
p776
sg18
I1
sg19
S'propVirtual_64'
p777
sg21
I1500
sg22
S''
sg23
I0
sg24
g776
sg25
I283
sg26
(lp778
sg29
L1169L
sg30
g776
sg31
(lp779
g8
ag9
ag14
ag18
ag29
ag21
ag23
ag33
ag25
ag19
ag30
ag12
ag10
ag22
ag24
ag16
ag26
asba(iProducts.DataCollector.plugins.DataMaps
ObjectMap
p780
(dp781
g8
I1
sg9
S'00:03:31:7D:5F:B3'
p782
sg10
g11
sg12
g13
sg14
S''
sg16
S'unrouted VLAN 947'
p783
sg18
I1
sg19
S'propVirtual_64'
p784
sg21
I1500
sg22
S''
sg23
I0
sg24
g783
sg25
I163
sg26
(lp785
sg29
L167L
sg30
g783
sg31
(lp786
g8
ag9
ag14
ag18
ag29
ag21
ag23
ag33
ag25
ag19
ag30
ag12
ag10
ag22
ag24
ag16
ag26
asba(iProducts.DataCollector.plugins.DataMaps
ObjectMap
p787
(dp788
g8
I1
sg9
S'00:03:31:7D:5C:00'
p789
sg10
g11
sg12
g13
sg14
S''
sg16
S'unrouted VLAN 2478'
p790
sg18
I1
sg19
S'propVirtual_64'
p791
sg21
I1500
sg22
S''
sg23
I0
sg24
g790
sg25
I284
sg26
(lp792
sg29
L377L
sg30
g790
sg31
(lp793
g8
ag9
ag14
ag18
ag29
ag21
ag23
ag33
ag25
ag19
ag30
ag12
ag10
ag22
ag24
ag16
ag26
asba(iProducts.DataCollector.plugins.DataMaps
ObjectMap
p794
(dp795
g8
I1
sg9
S'00:03:31:7D:5C:6A'
p796
sg10
g11
sg12
g13
sg14
S''
sg16
S'unrouted VLAN 106'
p797
sg18
I1
sg19
S'propVirtual_64'
p798
sg21
I1500
sg22
S''
sg23
I0
sg24
g797
sg25
I287
sg26
(lp799
sg29
L822L
sg30
g797
sg31
(lp800
g8
ag9
ag14
ag18
ag29
ag21
ag23
ag33
ag25
ag19
ag30
ag12
ag10
ag22
ag24
ag16
ag26
asba(iProducts.DataCollector.plugins.DataMaps
ObjectMap
p801
(dp802
g8
I1
sg9
S'00:03:31:7D:5C:00'
p803
sg10
g11
sg12
g13
sg14
S''
sg16
S'unrouted VLAN 2471'
p804
sg18
I1
sg19
S'propVirtual_64'
p805
sg21
I1500
sg22
S''
sg23
I0
sg24
g804
sg25
I286
sg26
(lp806
sg29
L839L
sg30
g804
sg31
(lp807
g8
ag9
ag14
ag18
ag29
ag21
ag23
ag33
ag25
ag19
ag30
ag12
ag10
ag22
ag24
ag16
ag26
asba(iProducts.DataCollector.plugins.DataMaps
ObjectMap
p808
(dp809
g8
I1
sg9
S'00:11:93:3A:9E:C1'
p810
sg10
g11
sg12
g13
sg14
S'DC SER X02H2EBDC RDNT AUTO - VLAN 971 rmpg4bdc G1/10 to x02h2eb'
p811
sg16
S'GigabitEthernet1/10'
p812
sg18
I1
sg19
S'ethernetCsmacd_64'
p813
sg21
I1500
sg22
S''
sg23
I3
sg24
g812
sg25
I10
sg26
(lp814
sg29
L1000000812L
sg30
S'GigabitEthernet1_10'
p815
sg31
(lp816
g8
ag9
ag14
ag18
ag29
ag21
ag23
ag33
ag25
ag19
ag30
ag12
ag10
ag22
ag24
ag16
ag26
asba(iProducts.DataCollector.plugins.DataMaps
ObjectMap
p817
(dp818
g8
I1
sg9
S'00:03:31:7D:5C:00'
p819
sg10
g11
sg12
g13
sg14
S''
sg16
S'unrouted VLAN 2462'
p820
sg18
I1
sg19
S'propVirtual_64'
p821
sg21
I1500
sg22
S''
sg23
I0
sg24
g820
sg25
I263
sg26
(lp822
sg29
L422L
sg30
g820
sg31
(lp823
g8
ag9
ag14
ag18
ag29
ag21
ag23
ag33
ag25
ag19
ag30
ag12
ag10
ag22
ag24
ag16
ag26
asba(iProducts.DataCollector.plugins.DataMaps
ObjectMap
p824
(dp825
g8
I1
sg9
S'00:03:31:7D:5C:00'
p826
sg10
g11
sg12
g13
sg14
S''
sg16
S'unrouted VLAN 3608'
p827
sg18
I1
sg19
S'propVirtual_64'
p828
sg21
I1500
sg22
S''
sg23
I0
sg24
g827
sg25
I262
sg26
(lp829
sg29
L1004L
sg30
g827
sg31
(lp830
g8
ag9
ag14
ag18
ag29
ag21
ag23
ag33
ag25
ag19
ag30
ag12
ag10
ag22
ag24
ag16
ag26
asba(iProducts.DataCollector.plugins.DataMaps
ObjectMap
p831
(dp832
g8
I2
sg9
S'00:03:31:7D:5C:00'
p833
sg10
g11
sg12
g13
sg14
S''
sg16
S'Vlan2420'
p834
sg18
I2
sg19
S'propVirtual_64'
p835
sg21
I1500
sg22
S''
sg23
I0
sg24
g834
sg25
I261
sg26
(lp836
sg29
L1000000145L
sg30
g834
sg31
(lp837
g8
ag9
ag14
ag18
ag29
ag21
ag23
ag33
ag25
ag19
ag30
ag12
ag10
ag22
ag24
ag16
ag26
asba(iProducts.DataCollector.plugins.DataMaps
ObjectMap
p838
(dp839
g8
I2
sg9
S'00:03:31:7D:5C:00'
p840
sg10
g11
sg12
g13
sg14
S''
sg16
S'Vlan2416'
p841
sg18
I2
sg19
S'propVirtual_64'
p842
sg21
I1500
sg22
S''
sg23
I0
sg24
g841
sg25
I260
sg26
(lp843
sg29
L999996602L
sg30
g841
sg31
(lp844
g8
ag9
ag14
ag18
ag29
ag21
ag23
ag33
ag25
ag19
ag30
ag12
ag10
ag22
ag24
ag16
ag26
asba(iProducts.DataCollector.plugins.DataMaps
ObjectMap
p845
(dp846
g8
I1
sg9
S'00:11:93:3A:9E:B9'
p847
sg10
g11
sg12
g13
sg14
S'DC CORE RMPG5BDC AUTO RDNT - rmpg4bdc G1/2 (etherchannel ports'
p848
sg16
S'GigabitEthernet1/2'
p849
sg18
I1
sg19
S'ethernetCsmacd_64'
p850
sg21
I1500
sg22
S''
sg23
I3
sg24
g849
sg25
I2
sg26
(lp851
sg29
L999999309L
sg30
S'GigabitEthernet1_2'
p852
sg31
(lp853
g8
ag9
ag14
ag18
ag29
ag21
ag23
ag33
ag25
ag19
ag30
ag12
ag10
ag22
ag24
ag16
ag26
asba(iProducts.DataCollector.plugins.DataMaps
ObjectMap
p854
(dp855
g8
I1
sg9
S'00:03:31:7D:5C:00'
p856
sg10
g11
sg12
g13
sg14
S''
sg16
S'unrouted VLAN 2465'
p857
sg18
I1
sg19
S'propVirtual_64'
p858
sg21
I1500
sg22
S''
sg23
I0
sg24
g857
sg25
I268
sg26
(lp859
sg29
L2262L
sg30
g857
sg31
(lp860
g8
ag9
ag14
ag18
ag29
ag21
ag23
ag33
ag25
ag19
ag30
ag12
ag10
ag22
ag24
ag16
ag26
asba(iProducts.DataCollector.plugins.DataMaps
ObjectMap
p861
(dp862
g8
I2
sg9
S'00:03:31:7D:5C:00'
p863
sg10
g11
sg12
g13
sg14
S''
sg16
S'GigabitEthernet1/16'
p864
sg18
I2
sg19
S'ethernetCsmacd_64'
p865
sg21
I1500
sg22
S''
sg23
I3
sg24
g864
sg25
I16
sg26
(lp866
sg29
L999998805L
sg30
S'GigabitEthernet1_16'
p867
sg31
(lp868
g8
ag9
ag14
ag18
ag29
ag21
ag23
ag33
ag25
ag19
ag30
ag12
ag10
ag22
ag24
ag16
ag26
asba(iProducts.DataCollector.plugins.DataMaps
ObjectMap
p869
(dp870
g8
I1
sg9
S'00:03:31:7D:5C:00'
p871
sg10
g11
sg12
g13
sg14
S''
sg16
S'unrouted VLAN 2475'
p872
sg18
I1
sg19
S'propVirtual_64'
p873
sg21
I1500
sg22
S''
sg23
I0
sg24
g872
sg25
I298
sg26
(lp874
sg29
L871L
sg30
g872
sg31
(lp875
g8
ag9
ag14
ag18
ag29
ag21
ag23
ag33
ag25
ag19
ag30
ag12
ag10
ag22
ag24
ag16
ag26
asba(iProducts.DataCollector.plugins.DataMaps
ObjectMap
p876
(dp877
g8
I1
sg9
S'00:03:31:7D:5C:00'
p878
sg10
g11
sg12
g13
sg14
S''
sg16
S'unrouted VLAN 2476'
p879
sg18
I1
sg19
S'propVirtual_64'
p880
sg21
I1500
sg22
S''
sg23
I0
sg24
g879
sg25
I299
sg26
(lp881
sg29
L7L
sg30
g879
sg31
(lp882
g8
ag9
ag14
ag18
ag29
ag21
ag23
ag33
ag25
ag19
ag30
ag12
ag10
ag22
ag24
ag16
ag26
asba(iProducts.DataCollector.plugins.DataMaps
ObjectMap
p883
(dp884
g8
I1
sg9
S'00:03:31:7D:5C:00'
p885
sg10
g11
sg12
g13
sg14
S''
sg16
S'unrouted VLAN 2493'
p886
sg18
I1
sg19
S'propVirtual_64'
p887
sg21
I1500
sg22
S''
sg23
I0
sg24
g886
sg25
I294
sg26
(lp888
sg29
L1858L
sg30
g886
sg31
(lp889
g8
ag9
ag14
ag18
ag29
ag21
ag23
ag33
ag25
ag19
ag30
ag12
ag10
ag22
ag24
ag16
ag26
asba(iProducts.DataCollector.plugins.DataMaps
ObjectMap
p890
(dp891
g8
I1
sg9
S'00:03:31:7D:5C:00'
p892
sg10
g11
sg12
g13
sg14
S''
sg16
S'unrouted VLAN 2500'
p893
sg18
I1
sg19
S'propVirtual_64'
p894
sg21
I1500
sg22
S''
sg23
I0
sg24
g893
sg25
I295
sg26
(lp895
sg29
L475L
sg30
g893
sg31
(lp896
g8
ag9
ag14
ag18
ag29
ag21
ag23
ag33
ag25
ag19
ag30
ag12
ag10
ag22
ag24
ag16
ag26
asba(iProducts.DataCollector.plugins.DataMaps
ObjectMap
p897
(dp898
g8
I1
sg9
S'00:03:31:7D:5C:00'
p899
sg10
g11
sg12
g13
sg14
S''
sg16
S'unrouted VLAN 3600'
p900
sg18
I1
sg19
S'propVirtual_64'
p901
sg21
I1500
sg22
S''
sg23
I0
sg24
g900
sg25
I292
sg26
(lp902
sg29
L818L
sg30
g900
sg31
(lp903
g8
ag9
ag14
ag18
ag29
ag21
ag23
ag33
ag25
ag19
ag30
ag12
ag10
ag22
ag24
ag16
ag26
asba(iProducts.DataCollector.plugins.DataMaps
ObjectMap
p904
(dp905
g8
I1
sg9
S'00:03:31:7D:5C:00'
p906
sg10
g11
sg12
g13
sg14
S''
sg16
S'unrouted VLAN 2600'
p907
sg18
I1
sg19
S'propVirtual_64'
p908
sg21
I1500
sg22
S''
sg23
I0
sg24
g907
sg25
I293
sg26
(lp909
sg29
L310L
sg30
g907
sg31
(lp910
g8
ag9
ag14
ag18
ag29
ag21
ag23
ag33
ag25
ag19
ag30
ag12
ag10
ag22
ag24
ag16
ag26
asba(iProducts.DataCollector.plugins.DataMaps
ObjectMap
p911
(dp912
g8
I1
sg9
S'00:03:31:7D:5F:B4'
p913
sg10
g11
sg12
g13
sg14
S''
sg16
S'unrouted VLAN 948'
p914
sg18
I1
sg19
S'propVirtual_64'
p915
sg21
I1500
sg22
S''
sg23
I0
sg24
g914
sg25
I164
sg26
(lp916
sg29
L1513L
sg30
g914
sg31
(lp917
g8
ag9
ag14
ag18
ag29
ag21
ag23
ag33
ag25
ag19
ag30
ag12
ag10
ag22
ag24
ag16
ag26
asba(iProducts.DataCollector.plugins.DataMaps
ObjectMap
p918
(dp919
g8
I1
sg9
S'00:03:31:7D:5C:00'
p920
sg10
g11
sg12
g13
sg14
S''
sg16
S'unrouted VLAN 2605'
p921
sg18
I1
sg19
S'propVirtual_64'
p922
sg21
I1500
sg22
S''
sg23
I0
sg24
g921
sg25
I319
sg26
(lp923
sg29
L1247L
sg30
g921
sg31
(lp924
g8
ag9
ag14
ag18
ag29
ag21
ag23
ag33
ag25
ag19
ag30
ag12
ag10
ag22
ag24
ag16
ag26
asba(iProducts.DataCollector.plugins.DataMaps
ObjectMap
p925
(dp926
g8
I1
sg9
S'00:03:31:7D:5C:00'
p927
sg10
g11
sg12
g13
sg14
S''
sg16
S'unrouted VLAN 3605'
p928
sg18
I1
sg19
S'propVirtual_64'
p929
sg21
I1500
sg22
S''
sg23
I0
sg24
g928
sg25
I318
sg26
(lp930
sg29
L1414L
sg30
g928
sg31
(lp931
g8
ag9
ag14
ag18
ag29
ag21
ag23
ag33
ag25
ag19
ag30
ag12
ag10
ag22
ag24
ag16
ag26
asba(iProducts.DataCollector.plugins.DataMaps
ObjectMap
p932
(dp933
g8
I1
sg9
S'00:03:31:7D:5C:10'
p934
sg10
g11
sg12
g13
sg14
S''
sg16
S'unrouted VLAN 16'
p935
sg18
I1
sg19
S'propVirtual_64'
p936
sg21
I1500
sg22
S''
sg23
I0
sg24
g935
sg25
I195
sg26
(lp937
sg29
L2030L
sg30
g935
sg31
(lp938
g8
ag9
ag14
ag18
ag29
ag21
ag23
ag33
ag25
ag19
ag30
ag12
ag10
ag22
ag24
ag16
ag26
asba(iProducts.DataCollector.plugins.DataMaps
ObjectMap
p939
(dp940
g8
I1
sg9
S'00:03:31:7D:5C:0F'
p941
sg10
g11
sg12
g13
sg14
S''
sg16
S'unrouted VLAN 15'
p942
sg18
I1
sg19
S'propVirtual_64'
p943
sg21
I1500
sg22
S''
sg23
I0
sg24
g942
sg25
I194
sg26
(lp944
sg29
L1135L
sg30
g942
sg31
(lp945
g8
ag9
ag14
ag18
ag29
ag21
ag23
ag33
ag25
ag19
ag30
ag12
ag10
ag22
ag24
ag16
ag26
asba(iProducts.DataCollector.plugins.DataMaps
ObjectMap
p946
(dp947
g8
I2
sg9
S'00:03:31:7D:5C:00'
p948
sg10
g11
sg12
g13
sg14
S''
sg16
S'TenGigabitEthernet6/4'
p949
sg18
I2
sg19
S'ethernetCsmacd_64'
p950
sg21
I1500
sg22
S''
sg23
I3
sg24
g949
sg25
I311
sg26
(lp951
sg29
L50L
sg30
S'TenGigabitEthernet6_4'
p952
sg31
(lp953
g8
ag9
ag14
ag18
ag29
ag21
ag23
ag33
ag25
ag19
ag30
ag12
ag10
ag22
ag24
ag16
ag26
asba(iProducts.DataCollector.plugins.DataMaps
ObjectMap
p954
(dp955
g8
I1
sg9
S'00:03:31:7D:5C:0E'
p956
sg10
g11
sg12
g13
sg14
S''
sg16
S'unrouted VLAN 14'
p957
sg18
I1
sg19
S'propVirtual_64'
p958
sg21
I1500
sg22
S''
sg23
I0
sg24
g957
sg25
I190
sg26
(lp959
sg29
L813L
sg30
g957
sg31
(lp960
g8
ag9
ag14
ag18
ag29
ag21
ag23
ag33
ag25
ag19
ag30
ag12
ag10
ag22
ag24
ag16
ag26
asba(iProducts.DataCollector.plugins.DataMaps
ObjectMap
p961
(dp962
g8
I1
sg9
S'00:03:31:7D:5C:00'
p963
sg10
g11
sg12
g13
sg14
S''
sg16
S'unrouted VLAN 2467'
p964
sg18
I1
sg19
S'propVirtual_64'
p965
sg21
I1500
sg22
S''
sg23
I0
sg24
g964
sg25
I270
sg26
(lp966
sg29
L1320L
sg30
g964
sg31
(lp967
g8
ag9
ag14
ag18
ag29
ag21
ag23
ag33
ag25
ag19
ag30
ag12
ag10
ag22
ag24
ag16
ag26
asba(iProducts.DataCollector.plugins.DataMaps
ObjectMap
p968
(dp969
g8
I1
sg9
S'00:03:31:7D:5C:00'
p970
sg10
g11
sg12
g13
sg14
S''
sg16
S'unrouted VLAN 2468'
p971
sg18
I1
sg19
S'propVirtual_64'
p972
sg21
I1500
sg22
S''
sg23
I0
sg24
g971
sg25
I271
sg26
(lp973
sg29
L1209L
sg30
g971
sg31
(lp974
g8
ag9
ag14
ag18
ag29
ag21
ag23
ag33
ag25
ag19
ag30
ag12
ag10
ag22
ag24
ag16
ag26
asba(iProducts.DataCollector.plugins.DataMaps
ObjectMap
p975
(dp976
g8
I2
sg9
S'00:03:31:7D:5C:00'
p977
sg10
g11
sg12
g13
sg14
S'DC SER 10.105.229.96/28-CAM-APP-1863'
p978
sg16
S'Vlan2468'
p979
sg18
I2
sg19
S'propVirtual_64'
p980
sg21
I1500
sg22
S''
sg23
I0
sg24
g979
sg25
I272
sg26
(lp981
sg29
L999999942L
sg30
g979
sg31
(lp982
g8
ag9
ag14
ag18
ag29
ag21
ag23
ag33
ag25
ag19
ag30
ag12
ag10
ag22
ag24
ag16
ag26
asba(iProducts.DataCollector.plugins.DataMaps
ObjectMap
p983
(dp984
g8
I1
sg9
S'00:03:31:7D:5C:00'
p985
sg10
g11
sg12
g13
sg14
S''
sg16
S'unrouted VLAN 2609'
p986
sg18
I1
sg19
S'propVirtual_64'
p987
sg21
I1500
sg22
S''
sg23
I0
sg24
g986
sg25
I273
sg26
(lp988
sg29
L943L
sg30
g986
sg31
(lp989
g8
ag9
ag14
ag18
ag29
ag21
ag23
ag33
ag25
ag19
ag30
ag12
ag10
ag22
ag24
ag16
ag26
asba(iProducts.DataCollector.plugins.DataMaps
ObjectMap
p990
(dp991
g8
I1
sg9
S'00:03:31:7D:5C:00'
p992
sg10
g11
sg12
g13
sg14
S''
sg16
S'unrouted VLAN 3609'
p993
sg18
I1
sg19
S'propVirtual_64'
p994
sg21
I1500
sg22
S''
sg23
I0
sg24
g993
sg25
I274
sg26
(lp995
sg29
L650L
sg30
g993
sg31
(lp996
g8
ag9
ag14
ag18
ag29
ag21
ag23
ag33
ag25
ag19
ag30
ag12
ag10
ag22
ag24
ag16
ag26
asba(iProducts.DataCollector.plugins.DataMaps
ObjectMap
p997
(dp998
g8
I1
sg9
S'00:03:31:7D:5C:00'
p999
sg10
g11
sg12
g13
sg14
S''
sg16
S'unrouted VLAN 2466'
p1000
sg18
I1
sg19
S'propVirtual_64'
p1001
sg21
I1500
sg22
S''
sg23
I0
sg24
g1000
sg25
I275
sg26
(lp1002
sg29
L82L
sg30
g1000
sg31
(lp1003
g8
ag9
ag14
ag18
ag29
ag21
ag23
ag33
ag25
ag19
ag30
ag12
ag10
ag22
ag24
ag16
ag26
asba(iProducts.DataCollector.plugins.DataMaps
ObjectMap
p1004
(dp1005
g8
I1
sg9
S'00:03:31:7D:5C:00'
p1006
sg10
g11
sg12
g13
sg14
S''
sg16
S'unrouted VLAN 2469'
p1007
sg18
I1
sg19
S'propVirtual_64'
p1008
sg21
I1500
sg22
S''
sg23
I0
sg24
g1007
sg25
I276
sg26
(lp1009
sg29
L688L
sg30
g1007
sg31
(lp1010
g8
ag9
ag14
ag18
ag29
ag21
ag23
ag33
ag25
ag19
ag30
ag12
ag10
ag22
ag24
ag16
ag26
asba(iProducts.DataCollector.plugins.DataMaps
ObjectMap
p1011
(dp1012
g8
I1
sg9
S'00:03:31:7D:5C:00'
p1013
sg10
g11
sg12
g13
sg14
S''
sg16
S'unrouted VLAN 2610'
p1014
sg18
I1
sg19
S'propVirtual_64'
p1015
sg21
I1500
sg22
S''
sg23
I0
sg24
g1014
sg25
I277
sg26
(lp1016
sg29
L2637L
sg30
g1014
sg31
(lp1017
g8
ag9
ag14
ag18
ag29
ag21
ag23
ag33
ag25
ag19
ag30
ag12
ag10
ag22
ag24
ag16
ag26
asba(iProducts.DataCollector.plugins.DataMaps
ObjectMap
p1018
(dp1019
g8
I1
sg9
S'00:03:31:7D:5C:00'
p1020
sg10
g11
sg12
g13
sg14
S''
sg16
S'unrouted VLAN 2470'
p1021
sg18
I1
sg19
S'propVirtual_64'
p1022
sg21
I1500
sg22
S''
sg23
I0
sg24
g1021
sg25
I279
sg26
(lp1023
sg29
L349L
sg30
g1021
sg31
(lp1024
g8
ag9
ag14
ag18
ag29
ag21
ag23
ag33
ag25
ag19
ag30
ag12
ag10
ag22
ag24
ag16
ag26
asba(iProducts.DataCollector.plugins.DataMaps
ObjectMap
p1025
(dp1026
g8
I2
sg9
S'00:03:31:7D:5C:00'
p1027
sg10
g11
sg12
g13
sg14
S''
sg16
S'TenGigabitEthernet6/6'
p1028
sg18
I2
sg19
S'ethernetCsmacd_64'
p1029
sg21
I1500
sg22
S''
sg23
I3
sg24
g1028
sg25
I313
sg26
(lp1030
sg29
L483L
sg30
S'TenGigabitEthernet6_6'
p1031
sg31
(lp1032
g8
ag9
ag14
ag18
ag29
ag21
ag23
ag33
ag25
ag19
ag30
ag12
ag10
ag22
ag24
ag16
ag26
asba(iProducts.DataCollector.plugins.DataMaps
ObjectMap
p1033
(dp1034
g8
I1
sg9
S'00:03:31:7D:5C:00'
p1035
sg10
g11
sg12
g13
sg14
S''
sg16
S'unrouted VLAN 1945'
p1036
sg18
I1
sg19
S'propVirtual_64'
p1037
sg21
I1500
sg22
S''
sg23
I0
sg24
g1036
sg25
I250
sg26
(lp1038
sg29
L1793L
sg30
g1036
sg31
(lp1039
g8
ag9
ag14
ag18
ag29
ag21
ag23
ag33
ag25
ag19
ag30
ag12
ag10
ag22
ag24
ag16
ag26
asba(iProducts.DataCollector.plugins.DataMaps
ObjectMap
p1040
(dp1041
g8
I1
sg9
S'00:03:31:7D:5F:CA'
p1042
sg10
g11
sg12
g13
sg14
S''
sg16
S'unrouted VLAN 970'
p1043
sg18
I1
sg19
S'propVirtual_64'
p1044
sg21
I1500
sg22
S''
sg23
I0
sg24
g1043
sg25
I165
sg26
(lp1045
sg29
L90L
sg30
g1043
sg31
(lp1046
g8
ag9
ag14
ag18
ag29
ag21
ag23
ag33
ag25
ag19
ag30
ag12
ag10
ag22
ag24
ag16
ag26
asba(iProducts.DataCollector.plugins.DataMaps
ObjectMap
p1047
(dp1048
g8
I2
sg9
S'00:03:31:7D:5C:00'
p1049
sg10
g11
sg12
g13
sg14
S''
sg16
S'Vlan2422'
p1050
sg18
I2
sg19
S'propVirtual_64'
p1051
sg21
I1500
sg22
S''
sg23
I0
sg24
g1050
sg25
I251
sg26
(lp1052
sg29
L1000000190L
sg30
g1050
sg31
(lp1053
g8
ag9
ag14
ag18
ag29
ag21
ag23
ag33
ag25
ag19
ag30
ag12
ag10
ag22
ag24
ag16
ag26
asba(iProducts.DataCollector.plugins.DataMaps
ObjectMap
p1054
(dp1055
g8
I1
sg9
S'00:03:31:7D:5F:ED'
p1056
sg10
g11
sg12
g13
sg14
S''
sg16
S'unrouted VLAN 1005'
p1057
sg18
I1
sg19
S'propVirtual_64'
p1058
sg21
I1500
sg22
S''
sg23
I0
sg24
g1057
sg25
I140
sg26
(lp1059
sg29
L173L
sg30
g1057
sg31
(lp1060
g8
ag9
ag14
ag18
ag29
ag21
ag23
ag33
ag25
ag19
ag30
ag12
ag10
ag22
ag24
ag16
ag26
asba(iProducts.DataCollector.plugins.DataMaps
ObjectMap
p1061
(dp1062
g8
I1
sg9
S'00:03:31:7D:5F:EB'
p1063
sg10
g11
sg12
g13
sg14
S''
sg16
S'unrouted VLAN 1003'
p1064
sg18
I1
sg19
S'propVirtual_64'
p1065
sg21
I1500
sg22
S''
sg23
I0
sg24
g1064
sg25
I141
sg26
(lp1066
sg29
L2457L
sg30
g1064
sg31
(lp1067
g8
ag9
ag14
ag18
ag29
ag21
ag23
ag33
ag25
ag19
ag30
ag12
ag10
ag22
ag24
ag16
ag26
asba(iProducts.DataCollector.plugins.DataMaps
ObjectMap
p1068
(dp1069
g8
I1
sg9
S'00:11:93:3A:9E:BA'
p1070
sg10
g11
sg12
g13
sg14
S'DC SER X02G6EBDC AUTO RDNT - PDV Layer 2 rmpg4bdc G1/3 to x02g6'
p1071
sg16
S'GigabitEthernet1/3'
p1072
sg18
I1
sg19
S'ethernetCsmacd_64'
p1073
sg21
I1500
sg22
S''
sg23
I3
sg24
g1072
sg25
I3
sg26
(lp1074
sg29
L999999506L
sg30
S'GigabitEthernet1_3'
p1075
sg31
(lp1076
g8
ag9
ag14
ag18
ag29
ag21
ag23
ag33
ag25
ag19
ag30
ag12
ag10
ag22
ag24
ag16
ag26
asba(iProducts.DataCollector.plugins.DataMaps
ObjectMap
p1077
(dp1078
g8
I2
sg9
S'00:11:93:3A:9E:BE'
p1079
sg10
g11
sg12
g13
sg14
S'DC SER RMPG5BDC AUTO RDNT - rmpg4bdc G1/7 (etherchannel ports 1'
p1080
sg16
S'GigabitEthernet1/7'
p1081
sg18
I2
sg19
S'ethernetCsmacd_64'
p1082
sg21
I1500
sg22
S''
sg23
I3
sg24
g1081
sg25
I7
sg26
(lp1083
sg29
L999999555L
sg30
S'GigabitEthernet1_7'
p1084
sg31
(lp1085
g8
ag9
ag14
ag18
ag29
ag21
ag23
ag33
ag25
ag19
ag30
ag12
ag10
ag22
ag24
ag16
ag26
asba(iProducts.DataCollector.plugins.DataMaps
ObjectMap
p1086
(dp1087
g8
I2
sg9
S'00:03:31:7D:5C:00'
p1088
sg10
g11
sg12
g13
sg14
S''
sg16
S'TenGigabitEthernet6/5'
p1089
sg18
I2
sg19
S'ethernetCsmacd_64'
p1090
sg21
I1500
sg22
S''
sg23
I3
sg24
g1089
sg25
I312
sg26
(lp1091
sg29
L1725L
sg30
S'TenGigabitEthernet6_5'
p1092
sg31
(lp1093
g8
ag9
ag14
ag18
ag29
ag21
ag23
ag33
ag25
ag19
ag30
ag12
ag10
ag22
ag24
ag16
ag26
asba(iProducts.DataCollector.plugins.DataMaps
ObjectMap
p1094
(dp1095
g8
I1
sg9
S'00:03:31:7D:5C:00'
p1096
sg10
g11
sg12
g13
sg14
S''
sg16
S'unrouted VLAN 2423'
p1097
sg18
I1
sg19
S'propVirtual_64'
p1098
sg21
I1500
sg22
S''
sg23
I0
sg24
g1097
sg25
I255
sg26
(lp1099
sg29
L355L
sg30
g1097
sg31
(lp1100
g8
ag9
ag14
ag18
ag29
ag21
ag23
ag33
ag25
ag19
ag30
ag12
ag10
ag22
ag24
ag16
ag26
asba(iProducts.DataCollector.plugins.DataMaps
ObjectMap
p1101
(dp1102
g8
I1
sg9
S'50:3D:E5:7F:EA:00'
p1103
sg10
g11
sg12
g13
sg14
S'DC MF M24_zLinux_CHPID_12 RDNT AUTO PDC3 PDV Mainframe M24 z/Li'
p1104
sg16
S'TenGigabitEthernet6/1'
p1105
sg18
I1
sg19
S'ethernetCsmacd_64'
p1106
sg21
I1500
sg22
S''
sg23
I3
sg24
g1105
sg25
I308
sg26
(lp1107
sg29
L2556L
sg30
S'TenGigabitEthernet6_1'
p1108
sg31
(lp1109
g8
ag9
ag14
ag18
ag29
ag21
ag23
ag33
ag25
ag19
ag30
ag12
ag10
ag22
ag24
ag16
ag26
asba(iProducts.DataCollector.plugins.DataMaps
ObjectMap
p1110
(dp1111
g8
I1
sg9
S'50:3D:E5:7F:EA:01'
p1112
sg10
g11
sg12
g13
sg14
S'TSM3-0AAR-C3-T1'
p1113
sg16
S'TenGigabitEthernet6/2'
p1114
sg18
I1
sg19
S'ethernetCsmacd_64'
p1115
sg21
I1500
sg22
S''
sg23
I3
sg24
g1114
sg25
I309
sg26
(lp1116
sg29
L897L
sg30
S'TenGigabitEthernet6_2'
p1117
sg31
(lp1118
g8
ag9
ag14
ag18
ag29
ag21
ag23
ag33
ag25
ag19
ag30
ag12
ag10
ag22
ag24
ag16
ag26
asba(iProducts.DataCollector.plugins.DataMaps
ObjectMap
p1119
(dp1120
g8
I1
sg9
S'68:EF:BD:31:0A:38'
p1121
sg10
g11
sg12
g13
sg14
S''
sg16
S'GigabitEthernet2/1'
p1122
sg18
I1
sg19
S'ethernetCsmacd_64'
p1123
sg21
I9216
sg22
S''
sg23
I3
sg24
g1122
sg25
I25
sg26
(lp1124
sg29
L999998280L
sg30
S'GigabitEthernet2_1'
p1125
sg31
(lp1126
g8
ag9
ag14
ag18
ag29
ag21
ag23
ag33
ag25
ag19
ag30
ag12
ag10
ag22
ag24
ag16
ag26
asba(iProducts.DataCollector.plugins.DataMaps
ObjectMap
p1127
(dp1128
g8
I1
sg9
S'00:11:93:3A:50:43'
p1129
sg10
g11
sg12
g13
sg14
S'DC SER PDV_Cisco_ Nexus_Virtual_Portchannel_Server_Vlans  AUTO'
p1130
sg16
S'Port-channel10'
p1131
sg18
I1
sg19
S'propVirtual_64'
p1132
sg21
I1500
sg22
S''
sg23
I0
sg24
g1131
sg25
I300
sg26
(lp1133
sg29
L164L
sg30
g1131
sg31
(lp1134
g8
ag9
ag14
ag18
ag29
ag21
ag23
ag33
ag25
ag19
ag30
ag12
ag10
ag22
ag24
ag16
ag26
asba(iProducts.DataCollector.plugins.DataMaps
ObjectMap
p1135
(dp1136
g8
I1
sg9
S'00:03:31:7D:5C:00'
p1137
sg10
g11
sg12
g13
sg14
S''
sg16
S'unrouted VLAN 2200'
p1138
sg18
I1
sg19
S'propVirtual_64'
p1139
sg21
I1500
sg22
S''
sg23
I0
sg24
g1138
sg25
I301
sg26
(lp1140
sg29
L446L
sg30
g1138
sg31
(lp1141
g8
ag9
ag14
ag18
ag29
ag21
ag23
ag33
ag25
ag19
ag30
ag12
ag10
ag22
ag24
ag16
ag26
asba(iProducts.DataCollector.plugins.DataMaps
ObjectMap
p1142
(dp1143
g8
I1
sg9
S'00:03:31:7D:5F:5C'
p1144
sg10
g11
sg12
g13
sg14
S''
sg16
S'unrouted VLAN 860'
p1145
sg18
I1
sg19
S'propVirtual_64'
p1146
sg21
I1500
sg22
S''
sg23
I0
sg24
g1145
sg25
I303
sg26
(lp1147
sg29
L1144L
sg30
g1145
sg31
(lp1148
g8
ag9
ag14
ag18
ag29
ag21
ag23
ag33
ag25
ag19
ag30
ag12
ag10
ag22
ag24
ag16
ag26
asba(iProducts.DataCollector.plugins.DataMaps
ObjectMap
p1149
(dp1150
g8
I1
sg9
S'00:03:31:7D:5C:00'
p1151
sg10
g11
sg12
g13
sg14
S''
sg16
S'unrouted VLAN 2525'
p1152
sg18
I1
sg19
S'propVirtual_64'
p1153
sg21
I1500
sg22
S''
sg23
I0
sg24
g1152
sg25
I304
sg26
(lp1154
sg29
L2888L
sg30
g1152
sg31
(lp1155
g8
ag9
ag14
ag18
ag29
ag21
ag23
ag33
ag25
ag19
ag30
ag12
ag10
ag22
ag24
ag16
ag26
asba(iProducts.DataCollector.plugins.DataMaps
ObjectMap
p1156
(dp1157
g8
I1
sg9
S'00:03:31:7D:5C:00'
p1158
sg10
g11
sg12
g13
sg14
S''
sg16
S'unrouted VLAN 2526'
p1159
sg18
I1
sg19
S'propVirtual_64'
p1160
sg21
I1500
sg22
S''
sg23
I0
sg24
g1159
sg25
I305
sg26
(lp1161
sg29
L228L
sg30
g1159
sg31
(lp1162
g8
ag9
ag14
ag18
ag29
ag21
ag23
ag33
ag25
ag19
ag30
ag12
ag10
ag22
ag24
ag16
ag26
asba(iProducts.DataCollector.plugins.DataMaps
ObjectMap
p1163
(dp1164
g8
I1
sg9
S'00:03:31:7D:5C:00'
p1165
sg10
g11
sg12
g13
sg14
S''
sg16
S'unrouted VLAN 2527'
p1166
sg18
I1
sg19
S'propVirtual_64'
p1167
sg21
I1500
sg22
S''
sg23
I0
sg24
g1166
sg25
I306
sg26
(lp1168
sg29
L402L
sg30
g1166
sg31
(lp1169
g8
ag9
ag14
ag18
ag29
ag21
ag23
ag33
ag25
ag19
ag30
ag12
ag10
ag22
ag24
ag16
ag26
asba(iProducts.DataCollector.plugins.DataMaps
ObjectMap
p1170
(dp1171
g8
I1
sg9
S'00:03:31:7D:5C:00'
p1172
sg10
g11
sg12
g13
sg14
S''
sg16
S'unrouted VLAN 2477'
p1173
sg18
I1
sg19
S'propVirtual_64'
p1174
sg21
I1500
sg22
S''
sg23
I0
sg24
g1173
sg25
I307
sg26
(lp1175
sg29
L423L
sg30
g1173
sg31
(lp1176
g8
ag9
ag14
ag18
ag29
ag21
ag23
ag33
ag25
ag19
ag30
ag12
ag10
ag22
ag24
ag16
ag26
asba(iProducts.DataCollector.plugins.DataMaps
ObjectMap
p1177
(dp1178
g8
I2
sg9
S'00:03:31:7D:5C:00'
p1179
sg10
g11
sg12
g13
sg14
S''
sg16
S'Vlan2419'
p1180
sg18
I2
sg19
S'propVirtual_64'
p1181
sg21
I1500
sg22
S''
sg23
I0
sg24
g1180
sg25
I245
sg26
(lp1182
sg29
L1000000129L
sg30
g1180
sg31
(lp1183
g8
ag9
ag14
ag18
ag29
ag21
ag23
ag33
ag25
ag19
ag30
ag12
ag10
ag22
ag24
ag16
ag26
asba(iProducts.DataCollector.plugins.DataMaps
ObjectMap
p1184
(dp1185
g8
I1
sg9
S'00:03:31:7D:5C:00'
p1186
sg10
g11
sg12
g13
sg14
S''
sg16
S'unrouted VLAN 2417'
p1187
sg18
I1
sg19
S'propVirtual_64'
p1188
sg21
I1500
sg22
S''
sg23
I0
sg24
g1187
sg25
I244
sg26
(lp1189
sg29
L972L
sg30
g1187
sg31
(lp1190
g8
ag9
ag14
ag18
ag29
ag21
ag23
ag33
ag25
ag19
ag30
ag12
ag10
ag22
ag24
ag16
ag26
asba(iProducts.DataCollector.plugins.DataMaps
ObjectMap
p1191
(dp1192
g8
I2
sg9
S''
sg10
g11
sg12
g13
sg14
S'PDV - no longer used'
p1193
sg16
S'Loopback1'
p1194
sg18
I2
sg19
S'softwareLoopback_64'
p1195
sg21
I1514
sg22
S''
sg23
I0
sg24
g1194
sg25
I108
sg26
(lp1196
sg29
L2273L
sg30
g1194
sg31
(lp1197
g8
ag9
ag14
ag18
ag29
ag21
ag23
ag33
ag25
ag19
ag30
ag12
ag10
ag22
ag24
ag16
ag26
asba(iProducts.DataCollector.plugins.DataMaps
ObjectMap
p1198
(dp1199
g8
I1
sg9
S'00:11:92:99:60:48'
p1200
sg10
g11
sg12
g13
sg14
S'DC SER PDV_Port_Channel_Trunk_Server_VLANS AUTO RDNT - rmpg4bdc'
p1201
sg16
S'Port-channel2'
p1202
sg18
I1
sg19
S'propVirtual_64'
p1203
sg21
I1500
sg22
S''
sg23
I0
sg24
g1202
sg25
I109
sg26
(lp1204
sg29
L720L
sg30
g1202
sg31
(lp1205
g8
ag9
ag14
ag18
ag29
ag21
ag23
ag33
ag25
ag19
ag30
ag12
ag10
ag22
ag24
ag16
ag26
asba(iProducts.DataCollector.plugins.DataMaps
ObjectMap
p1206
(dp1207
g8
I1
sg9
S'00:03:31:7D:5C:00'
p1208
sg10
g11
sg12
g13
sg14
S''
sg16
S'unrouted VLAN 2900'
p1209
sg18
I1
sg19
S'propVirtual_64'
p1210
sg21
I1500
sg22
S''
sg23
I0
sg24
g1209
sg25
I241
sg26
(lp1211
sg29
L541L
sg30
g1209
sg31
(lp1212
g8
ag9
ag14
ag18
ag29
ag21
ag23
ag33
ag25
ag19
ag30
ag12
ag10
ag22
ag24
ag16
ag26
asba(iProducts.DataCollector.plugins.DataMaps
ObjectMap
p1213
(dp1214
g8
I1
sg9
S'00:03:31:7D:5C:00'
p1215
sg10
g11
sg12
g13
sg14
S''
sg16
S'unrouted VLAN 2607'
p1216
sg18
I1
sg19
S'propVirtual_64'
p1217
sg21
I1500
sg22
S''
sg23
I0
sg24
g1216
sg25
I240
sg26
(lp1218
sg29
L628L
sg30
g1216
sg31
(lp1219
g8
ag9
ag14
ag18
ag29
ag21
ag23
ag33
ag25
ag19
ag30
ag12
ag10
ag22
ag24
ag16
ag26
asba(iProducts.DataCollector.plugins.DataMaps
ObjectMap
p1220
(dp1221
g8
I1
sg9
S'00:03:31:7D:5F:C9'
p1222
sg10
g11
sg12
g13
sg14
S''
sg16
S'unrouted VLAN 969'
p1223
sg18
I1
sg19
S'propVirtual_64'
p1224
sg21
I1500
sg22
S''
sg23
I0
sg24
g1223
sg25
I167
sg26
(lp1225
sg29
L2642L
sg30
g1223
sg31
(lp1226
g8
ag9
ag14
ag18
ag29
ag21
ag23
ag33
ag25
ag19
ag30
ag12
ag10
ag22
ag24
ag16
ag26
asba(iProducts.DataCollector.plugins.DataMaps
ObjectMap
p1227
(dp1228
g8
I1
sg9
S''
sg10
g11
sg12
g13
sg14
S''
sg16
S'Null0'
p1229
sg18
I1
sg19
S'Other'
p1230
sg21
I1500
sg22
S''
sg23
I0
sg24
g1229
sg25
I106
sg26
(lp1231
sg29
L1030L
sg30
g1229
sg31
(lp1232
g8
ag9
ag14
ag18
ag29
ag21
ag23
ag25
ag19
ag30
ag12
ag10
ag22
ag24
ag16
ag26
asba(iProducts.DataCollector.plugins.DataMaps
ObjectMap
p1233
(dp1234
g8
I1
sg9
S'00:03:31:7D:5C:00'
p1235
sg10
g11
sg12
g13
sg14
S''
sg16
S'Vlan1'
p1236
sg18
I1
sg19
S'propVirtual_64'
p1237
sg21
I1500
sg22
S''
sg23
I0
sg24
g1236
sg25
I104
sg26
(lp1238
sg29
L1000002210L
sg30
g1236
sg31
(lp1239
g8
ag9
ag14
ag18
ag29
ag21
ag23
ag33
ag25
ag19
ag30
ag12
ag10
ag22
ag24
ag16
ag26
asba(iProducts.DataCollector.plugins.DataMaps
ObjectMap
p1240
(dp1241
g8
I1
sg9
S'00:03:31:7D:5C:00'
p1242
sg10
g11
sg12
g13
sg14
S''
sg16
S'unrouted VLAN 2418'
p1243
sg18
I1
sg19
S'propVirtual_64'
p1244
sg21
I1500
sg22
S''
sg23
I0
sg24
g1243
sg25
I247
sg26
(lp1245
sg29
L1031L
sg30
g1243
sg31
(lp1246
g8
ag9
ag14
ag18
ag29
ag21
ag23
ag33
ag25
ag19
ag30
ag12
ag10
ag22
ag24
ag16
ag26
asba(iProducts.DataCollector.plugins.DataMaps
ObjectMap
p1247
(dp1248
g8
I1
sg9
S'00:03:31:7D:5C:07'
p1249
sg10
g11
sg12
g13
sg14
S''
sg16
S'unrouted VLAN 7'
p1250
sg18
I1
sg19
S'propVirtual_64'
p1251
sg21
I1500
sg22
S''
sg23
I0
sg24
g1250
sg25
I147
sg26
(lp1252
sg29
L0L
sg30
g1250
sg31
(lp1253
g8
ag9
ag14
ag18
ag29
ag21
ag23
ag33
ag25
ag19
ag30
ag12
ag10
ag22
ag24
ag16
ag26
asba(iProducts.DataCollector.plugins.DataMaps
ObjectMap
p1254
(dp1255
g8
I1
sg9
S'00:03:31:7D:5C:00'
p1256
sg10
g11
sg12
g13
sg14
S''
sg16
S'unrouted VLAN 2419'
p1257
sg18
I1
sg19
S'propVirtual_64'
p1258
sg21
I1500
sg22
S''
sg23
I0
sg24
g1257
sg25
I246
sg26
(lp1259
sg29
L2399L
sg30
g1257
sg31
(lp1260
g8
ag9
ag14
ag18
ag29
ag21
ag23
ag33
ag25
ag19
ag30
ag12
ag10
ag22
ag24
ag16
ag26
asba(iProducts.DataCollector.plugins.DataMaps
ObjectMap
p1261
(dp1262
g8
I1
sg9
S'00:03:31:7D:5F:B2'
p1263
sg10
g11
sg12
g13
sg14
S''
sg16
S'unrouted VLAN 946'
p1264
sg18
I1
sg19
S'propVirtual_64'
p1265
sg21
I1500
sg22
S''
sg23
I0
sg24
g1264
sg25
I162
sg26
(lp1266
sg29
L1064L
sg30
g1264
sg31
(lp1267
g8
ag9
ag14
ag18
ag29
ag21
ag23
ag33
ag25
ag19
ag30
ag12
ag10
ag22
ag24
ag16
ag26
asba(iProducts.DataCollector.plugins.DataMaps
ObjectMap
p1268
(dp1269
g8
I1
sg9
S'00:03:31:7D:5C:00'
p1270
sg10
g11
sg12
g13
sg14
S''
sg16
S'unrouted VLAN 2422'
p1271
sg18
I1
sg19
S'propVirtual_64'
p1272
sg21
I1500
sg22
S''
sg23
I0
sg24
g1271
sg25
I252
sg26
(lp1273
sg29
L2317L
sg30
g1271
sg31
(lp1274
g8
ag9
ag14
ag18
ag29
ag21
ag23
ag33
ag25
ag19
ag30
ag12
ag10
ag22
ag24
ag16
ag26
asba(iProducts.DataCollector.plugins.DataMaps
ObjectMap
p1275
(dp1276
g8
I1
sg9
S'00:03:31:7D:5C:00'
p1277
sg10
g11
sg12
g13
sg14
S''
sg16
S'unrouted VLAN 2484'
p1278
sg18
I1
sg19
S'propVirtual_64'
p1279
sg21
I1500
sg22
S''
sg23
I0
sg24
g1278
sg25
I339
sg26
(lp1280
sg29
L682L
sg30
g1278
sg31
(lp1281
g8
ag9
ag14
ag18
ag29
ag21
ag23
ag33
ag25
ag19
ag30
ag12
ag10
ag22
ag24
ag16
ag26
asba(iProducts.DataCollector.plugins.DataMaps
ObjectMap
p1282
(dp1283
g8
I1
sg9
S'00:03:31:7D:5C:00'
p1284
sg10
g11
sg12
g13
sg14
S''
sg16
S'unrouted VLAN 2483'
p1285
sg18
I1
sg19
S'propVirtual_64'
p1286
sg21
I1500
sg22
S''
sg23
I0
sg24
g1285
sg25
I338
sg26
(lp1287
sg29
L313L
sg30
g1285
sg31
(lp1288
g8
ag9
ag14
ag18
ag29
ag21
ag23
ag33
ag25
ag19
ag30
ag12
ag10
ag22
ag24
ag16
ag26
asba(iProducts.DataCollector.plugins.DataMaps
ObjectMap
p1289
(dp1290
g8
I1
sg9
S'00:03:31:7D:5C:00'
p1291
sg10
g11
sg12
g13
sg14
S''
sg16
S'unrouted VLAN 2480'
p1292
sg18
I1
sg19
S'propVirtual_64'
p1293
sg21
I1500
sg22
S''
sg23
I0
sg24
g1292
sg25
I335
sg26
(lp1294
sg29
L238L
sg30
g1292
sg31
(lp1295
g8
ag9
ag14
ag18
ag29
ag21
ag23
ag33
ag25
ag19
ag30
ag12
ag10
ag22
ag24
ag16
ag26
asba(iProducts.DataCollector.plugins.DataMaps
ObjectMap
p1296
(dp1297
g8
I1
sg9
S'00:03:31:7D:5C:00'
p1298
sg10
g11
sg12
g13
sg14
S''
sg16
S'unrouted VLAN 2479'
p1299
sg18
I1
sg19
S'propVirtual_64'
p1300
sg21
I1500
sg22
S''
sg23
I0
sg24
g1299
sg25
I334
sg26
(lp1301
sg29
L620L
sg30
g1299
sg31
(lp1302
g8
ag9
ag14
ag18
ag29
ag21
ag23
ag33
ag25
ag19
ag30
ag12
ag10
ag22
ag24
ag16
ag26
asba(iProducts.DataCollector.plugins.DataMaps
ObjectMap
p1303
(dp1304
g8
I1
sg9
S'00:03:31:7D:5C:00'
p1305
sg10
g11
sg12
g13
sg14
S''
sg16
S'unrouted VLAN 2481'
p1306
sg18
I1
sg19
S'propVirtual_64'
p1307
sg21
I1500
sg22
S''
sg23
I0
sg24
g1306
sg25
I337
sg26
(lp1308
sg29
L961L
sg30
g1306
sg31
(lp1309
g8
ag9
ag14
ag18
ag29
ag21
ag23
ag33
ag25
ag19
ag30
ag12
ag10
ag22
ag24
ag16
ag26
asba(iProducts.DataCollector.plugins.DataMaps
ObjectMap
p1310
(dp1311
g8
I1
sg9
S'00:03:31:7D:5C:00'
p1312
sg10
g11
sg12
g13
sg14
S''
sg16
S'unrouted VLAN 2482'
p1313
sg18
I1
sg19
S'propVirtual_64'
p1314
sg21
I1500
sg22
S''
sg23
I0
sg24
g1313
sg25
I336
sg26
(lp1315
sg29
L694L
sg30
g1313
sg31
(lp1316
g8
ag9
ag14
ag18
ag29
ag21
ag23
ag33
ag25
ag19
ag30
ag12
ag10
ag22
ag24
ag16
ag26
asba(iProducts.DataCollector.plugins.DataMaps
ObjectMap
p1317
(dp1318
g8
I1
sg9
S'00:03:31:7D:5C:00'
p1319
sg10
g11
sg12
g13
sg14
S''
sg16
S'unrouted VLAN 2516'
p1320
sg18
I1
sg19
S'propVirtual_64'
p1321
sg21
I1500
sg22
S''
sg23
I0
sg24
g1320
sg25
I331
sg26
(lp1322
sg29
L385L
sg30
g1320
sg31
(lp1323
g8
ag9
ag14
ag18
ag29
ag21
ag23
ag33
ag25
ag19
ag30
ag12
ag10
ag22
ag24
ag16
ag26
asba(iProducts.DataCollector.plugins.DataMaps
ObjectMap
p1324
(dp1325
g8
I1
sg9
S'00:03:31:7D:5C:00'
p1326
sg10
g11
sg12
g13
sg14
S''
sg16
S'unrouted VLAN 2406'
p1327
sg18
I1
sg19
S'propVirtual_64'
p1328
sg21
I1500
sg22
S''
sg23
I0
sg24
g1327
sg25
I330
sg26
(lp1329
sg29
L298L
sg30
g1327
sg31
(lp1330
g8
ag9
ag14
ag18
ag29
ag21
ag23
ag33
ag25
ag19
ag30
ag12
ag10
ag22
ag24
ag16
ag26
asba(iProducts.DataCollector.plugins.DataMaps
ObjectMap
p1331
(dp1332
g8
I1
sg9
S'00:03:31:7D:5C:00'
p1333
sg10
g11
sg12
g13
sg14
S''
sg16
S'unrouted VLAN 2494'
p1334
sg18
I1
sg19
S'propVirtual_64'
p1335
sg21
I1500
sg22
S''
sg23
I0
sg24
g1334
sg25
I333
sg26
(lp1336
sg29
L1687L
sg30
g1334
sg31
(lp1337
g8
ag9
ag14
ag18
ag29
ag21
ag23
ag33
ag25
ag19
ag30
ag12
ag10
ag22
ag24
ag16
ag26
asba(iProducts.DataCollector.plugins.DataMaps
ObjectMap
p1338
(dp1339
g8
I2
sg9
S'00:03:31:7D:5C:00'
p1340
sg10
g11
sg12
g13
sg14
S''
sg16
S'Vlan1945'
p1341
sg18
I2
sg19
S'propVirtual_64'
p1342
sg21
I1500
sg22
S''
sg23
I0
sg24
g1341
sg25
I258
sg26
(lp1343
sg29
L1000001029L
sg30
g1341
sg31
(lp1344
g8
ag9
ag14
ag18
ag29
ag21
ag23
ag33
ag25
ag19
ag30
ag12
ag10
ag22
ag24
ag16
ag26
asba(iProducts.DataCollector.plugins.DataMaps
ObjectMap
p1345
(dp1346
g8
I2
sg9
S'00:03:31:7D:5C:00'
p1347
sg10
g11
sg12
g13
sg14
S''
sg16
S'Vlan2000'
p1348
sg18
I2
sg19
S'propVirtual_64'
p1349
sg21
I1500
sg22
S''
sg23
I0
sg24
g1348
sg25
I259
sg26
(lp1350
sg29
L999999877L
sg30
g1348
sg31
(lp1351
g8
ag9
ag14
ag18
ag29
ag21
ag23
ag33
ag25
ag19
ag30
ag12
ag10
ag22
ag24
ag16
ag26
asba(iProducts.DataCollector.plugins.DataMaps
ObjectMap
p1352
(dp1353
g8
I2
sg9
S'00:03:31:7D:5C:00'
p1354
sg10
g11
sg12
g13
sg14
S''
sg16
S'Vlan4'
p1355
sg18
I2
sg19
S'propVirtual_64'
p1356
sg21
I1500
sg22
S''
sg23
I0
sg24
g1355
sg25
I178
sg26
(lp1357
sg29
L1000001182L
sg30
g1355
sg31
(lp1358
g8
ag9
ag14
ag18
ag29
ag21
ag23
ag33
ag25
ag19
ag30
ag12
ag10
ag22
ag24
ag16
ag26
asba(iProducts.DataCollector.plugins.DataMaps
ObjectMap
p1359
(dp1360
g8
I2
sg9
S'00:03:31:7D:5C:00'
p1361
sg10
g11
sg12
g13
sg14
S''
sg16
S'Vlan3'
p1362
sg18
I2
sg19
S'propVirtual_64'
p1363
sg21
I1500
sg22
S''
sg23
I0
sg24
g1362
sg25
I177
sg26
(lp1364
sg29
L999999968L
sg30
g1362
sg31
(lp1365
g8
ag9
ag14
ag18
ag29
ag21
ag23
ag33
ag25
ag19
ag30
ag12
ag10
ag22
ag24
ag16
ag26
asba(iProducts.DataCollector.plugins.DataMaps
ObjectMap
p1366
(dp1367
g8
I1
sg9
S'00:03:31:7D:5C:09'
p1368
sg10
g11
sg12
g13
sg14
S''
sg16
S'unrouted VLAN 9'
p1369
sg18
I1
sg19
S'propVirtual_64'
p1370
sg21
I1500
sg22
S''
sg23
I0
sg24
g1369
sg25
I174
sg26
(lp1371
sg29
L948L
sg30
g1369
sg31
(lp1372
g8
ag9
ag14
ag18
ag29
ag21
ag23
ag33
ag25
ag19
ag30
ag12
ag10
ag22
ag24
ag16
ag26
asba(iProducts.DataCollector.plugins.DataMaps
ObjectMap
p1373
(dp1374
g8
I2
sg9
S'00:03:31:7D:5C:00'
p1375
sg10
g11
sg12
g13
sg14
S''
sg16
S'Vlan150'
p1376
sg18
I2
sg19
S'propVirtual_64'
p1377
sg21
I1500
sg22
S''
sg23
I0
sg24
g1376
sg25
I256
sg26
(lp1378
sg29
L999998753L
sg30
g1376
sg31
(lp1379
g8
ag9
ag14
ag18
ag29
ag21
ag23
ag33
ag25
ag19
ag30
ag12
ag10
ag22
ag24
ag16
ag26
asba(iProducts.DataCollector.plugins.DataMaps
ObjectMap
p1380
(dp1381
g8
I2
sg9
S'00:03:31:7D:5C:00'
p1382
sg10
g11
sg12
g13
sg14
S''
sg16
S'Vlan999'
p1383
sg18
I2
sg19
S'propVirtual_64'
p1384
sg21
I1500
sg22
S''
sg23
I0
sg24
g1383
sg25
I257
sg26
(lp1385
sg29
L999998078L
sg30
g1383
sg31
(lp1386
g8
ag9
ag14
ag18
ag29
ag21
ag23
ag33
ag25
ag19
ag30
ag12
ag10
ag22
ag24
ag16
ag26
asba(iProducts.DataCollector.plugins.DataMaps
ObjectMap
p1387
(dp1388
g8
I1
sg9
S'00:03:31:7D:5C:00'
p1389
sg10
g11
sg12
g13
sg14
S''
sg16
S'unrouted VLAN 2421'
p1390
sg18
I1
sg19
S'propVirtual_64'
p1391
sg21
I1500
sg22
S''
sg23
I0
sg24
g1390
sg25
I254
sg26
(lp1392
sg29
L251L
sg30
g1390
sg31
(lp1393
g8
ag9
ag14
ag18
ag29
ag21
ag23
ag33
ag25
ag19
ag30
ag12
ag10
ag22
ag24
ag16
ag26
asba(iProducts.DataCollector.plugins.DataMaps
ObjectMap
p1394
(dp1395
g8
I1
sg9
S'00:03:31:7D:5C:00'
p1396
sg10
g11
sg12
g13
sg14
S''
sg16
S'unrouted VLAN 2474'
p1397
sg18
I1
sg19
S'propVirtual_64'
p1398
sg21
I1500
sg22
S''
sg23
I0
sg24
g1397
sg25
I289
sg26
(lp1399
sg29
L1920L
sg30
g1397
sg31
(lp1400
g8
ag9
ag14
ag18
ag29
ag21
ag23
ag33
ag25
ag19
ag30
ag12
ag10
ag22
ag24
ag16
ag26
asba(iProducts.DataCollector.plugins.DataMaps
ObjectMap
p1401
(dp1402
g8
I1
sg9
S'00:03:31:7D:5C:00'
p1403
sg10
g11
sg12
g13
sg14
S''
sg16
S'unrouted VLAN 2473'
p1404
sg18
I1
sg19
S'propVirtual_64'
p1405
sg21
I1500
sg22
S''
sg23
I0
sg24
g1404
sg25
I288
sg26
(lp1406
sg29
L1390L
sg30
g1404
sg31
(lp1407
g8
ag9
ag14
ag18
ag29
ag21
ag23
ag33
ag25
ag19
ag30
ag12
ag10
ag22
ag24
ag16
ag26
asba(iProducts.DataCollector.plugins.DataMaps
ObjectMap
p1408
(dp1409
g8
I1
sg9
S'00:03:31:7D:5C:00'
p1410
sg10
g11
sg12
g13
sg14
S''
sg16
S'unrouted VLAN 2420'
p1411
sg18
I1
sg19
S'propVirtual_64'
p1412
sg21
I1500
sg22
S''
sg23
I0
sg24
g1411
sg25
I249
sg26
(lp1413
sg29
L954L
sg30
g1411
sg31
(lp1414
g8
ag9
ag14
ag18
ag29
ag21
ag23
ag33
ag25
ag19
ag30
ag12
ag10
ag22
ag24
ag16
ag26
asba(iProducts.DataCollector.plugins.DataMaps
ObjectMap
p1415
(dp1416
g8
I1
sg9
S'00:03:31:7D:5C:05'
p1417
sg10
g11
sg12
g13
sg14
S''
sg16
S'unrouted VLAN 5'
p1418
sg18
I1
sg19
S'propVirtual_64'
p1419
sg21
I1500
sg22
S''
sg23
I0
sg24
g1418
sg25
I145
sg26
(lp1420
sg29
L0L
sg30
g1418
sg31
(lp1421
g8
ag9
ag14
ag18
ag29
ag21
ag23
ag33
ag25
ag19
ag30
ag12
ag10
ag22
ag24
ag16
ag26
asba(iProducts.DataCollector.plugins.DataMaps
ObjectMap
p1422
(dp1423
g8
I1
sg9
S'00:03:31:7D:5C:C9'
p1424
sg10
g11
sg12
g13
sg14
S''
sg16
S'unrouted VLAN 201'
p1425
sg18
I1
sg19
S'propVirtual_64'
p1426
sg21
I1500
sg22
S''
sg23
I0
sg24
g1425
sg25
I182
sg26
(lp1427
sg29
L765L
sg30
g1425
sg31
(lp1428
g8
ag9
ag14
ag18
ag29
ag21
ag23
ag33
ag25
ag19
ag30
ag12
ag10
ag22
ag24
ag16
ag26
asba(iProducts.DataCollector.plugins.DataMaps
ObjectMap
p1429
(dp1430
g8
I1
sg9
S'00:03:31:7D:5C:0A'
p1431
sg10
g11
sg12
g13
sg14
S''
sg16
S'unrouted VLAN 10'
p1432
sg18
I1
sg19
S'propVirtual_64'
p1433
sg21
I1500
sg22
S''
sg23
I0
sg24
g1432
sg25
I183
sg26
(lp1434
sg29
L10L
sg30
g1432
sg31
(lp1435
g8
ag9
ag14
ag18
ag29
ag21
ag23
ag33
ag25
ag19
ag30
ag12
ag10
ag22
ag24
ag16
ag26
asba(iProducts.DataCollector.plugins.DataMaps
ObjectMap
p1436
(dp1437
g8
I1
sg9
S'00:03:31:7D:5C:C8'
p1438
sg10
g11
sg12
g13
sg14
S''
sg16
S'unrouted VLAN 200'
p1439
sg18
I1
sg19
S'propVirtual_64'
p1440
sg21
I1500
sg22
S''
sg23
I0
sg24
g1439
sg25
I181
sg26
(lp1441
sg29
L790L
sg30
g1439
sg31
(lp1442
g8
ag9
ag14
ag18
ag29
ag21
ag23
ag33
ag25
ag19
ag30
ag12
ag10
ag22
ag24
ag16
ag26
asba(iProducts.DataCollector.plugins.DataMaps
ObjectMap
p1443
(dp1444
g8
I2
sg9
S'00:11:93:3A:9E:BD'
p1445
sg10
g11
sg12
g13
sg14
S'DC CORE RMPG5BDC AUTO RDNT - rmpg4bdc G1/6 (etherchannel ports'
p1446
sg16
S'GigabitEthernet1/6'
p1447
sg18
I2
sg19
S'ethernetCsmacd_64'
p1448
sg21
I1500
sg22
S''
sg23
I3
sg24
g1447
sg25
I6
sg26
(lp1449
sg29
L999998654L
sg30
S'GigabitEthernet1_6'
p1450
sg31
(lp1451
g8
ag9
ag14
ag18
ag29
ag21
ag23
ag33
ag25
ag19
ag30
ag12
ag10
ag22
ag24
ag16
ag26
asba(iProducts.DataCollector.plugins.DataMaps
ObjectMap
p1452
(dp1453
g8
I1
sg9
S'00:03:31:7D:5C:0C'
p1454
sg10
g11
sg12
g13
sg14
S''
sg16
S'unrouted VLAN 12'
p1455
sg18
I1
sg19
S'propVirtual_64'
p1456
sg21
I1500
sg22
S''
sg23
I0
sg24
g1455
sg25
I188
sg26
(lp1457
sg29
L349L
sg30
g1455
sg31
(lp1458
g8
ag9
ag14
ag18
ag29
ag21
ag23
ag33
ag25
ag19
ag30
ag12
ag10
ag22
ag24
ag16
ag26
asba(iProducts.DataCollector.plugins.DataMaps
ObjectMap
p1459
(dp1460
g8
I1
sg9
S'00:03:31:7D:5C:0D'
p1461
sg10
g11
sg12
g13
sg14
S''
sg16
S'unrouted VLAN 13'
p1462
sg18
I1
sg19
S'propVirtual_64'
p1463
sg21
I1500
sg22
S''
sg23
I0
sg24
g1462
sg25
I189
sg26
(lp1464
sg29
L1685L
sg30
g1462
sg31
(lp1465
g8
ag9
ag14
ag18
ag29
ag21
ag23
ag33
ag25
ag19
ag30
ag12
ag10
ag22
ag24
ag16
ag26
asba(iProducts.DataCollector.plugins.DataMaps
ObjectMap
p1466
(dp1467
g8
I1
sg9
S'00:03:31:7D:5C:00'
p1468
sg10
g11
sg12
g13
sg14
S''
sg16
S'unrouted VLAN 2486'
p1469
sg18
I1
sg19
S'propVirtual_64'
p1470
sg21
I1500
sg22
S''
sg23
I0
sg24
g1469
sg25
I341
sg26
(lp1471
sg29
L1055L
sg30
g1469
sg31
(lp1472
g8
ag9
ag14
ag18
ag29
ag21
ag23
ag33
ag25
ag19
ag30
ag12
ag10
ag22
ag24
ag16
ag26
asba(iProducts.DataCollector.plugins.DataMaps
ObjectMap
p1473
(dp1474
g8
I2
sg9
S'00:03:31:7D:5C:00'
p1475
sg10
g11
sg12
g13
sg14
S''
sg16
S'TenGigabitEthernet6/3'
p1476
sg18
I2
sg19
S'ethernetCsmacd_64'
p1477
sg21
I1500
sg22
S''
sg23
I3
sg24
g1476
sg25
I310
sg26
(lp1478
sg29
L1685L
sg30
S'TenGigabitEthernet6_3'
p1479
sg31
(lp1480
g8
ag9
ag14
ag18
ag29
ag21
ag23
ag33
ag25
ag19
ag30
ag12
ag10
ag22
ag24
ag16
ag26
asba(iProducts.DataCollector.plugins.DataMaps
ObjectMap
p1481
(dp1482
g8
I1
sg9
S'00:03:31:7D:5C:0B'
p1483
sg10
g11
sg12
g13
sg14
S''
sg16
S'unrouted VLAN 11'
p1484
sg18
I1
sg19
S'propVirtual_64'
p1485
sg21
I1500
sg22
S''
sg23
I0
sg24
g1484
sg25
I185
sg26
(lp1486
sg29
L11L
sg30
g1484
sg31
(lp1487
g8
ag9
ag14
ag18
ag29
ag21
ag23
ag33
ag25
ag19
ag30
ag12
ag10
ag22
ag24
ag16
ag26
asba(iProducts.DataCollector.plugins.DataMaps
ObjectMap
p1488
(dp1489
g8
I1
sg9
S'00:03:31:7D:5C:02'
p1490
sg10
g11
sg12
g13
sg14
S''
sg16
S'unrouted VLAN 2'
p1491
sg18
I1
sg19
S'propVirtual_64'
p1492
sg21
I1500
sg22
S''
sg23
I0
sg24
g1491
sg25
I142
sg26
(lp1493
sg29
L694L
sg30
g1491
sg31
(lp1494
g8
ag9
ag14
ag18
ag29
ag21
ag23
ag33
ag25
ag19
ag30
ag12
ag10
ag22
ag24
ag16
ag26
asba(iProducts.DataCollector.plugins.DataMaps
ObjectMap
p1495
(dp1496
g8
I1
sg9
S'00:03:31:7D:5C:00'
p1497
sg10
g11
sg12
g13
sg14
S''
sg16
S'unrouted VLAN 2499'
p1498
sg18
I1
sg19
S'propVirtual_64'
p1499
sg21
I1500
sg22
S''
sg23
I0
sg24
g1498
sg25
I316
sg26
(lp1500
sg29
L698L
sg30
g1498
sg31
(lp1501
g8
ag9
ag14
ag18
ag29
ag21
ag23
ag33
ag25
ag19
ag30
ag12
ag10
ag22
ag24
ag16
ag26
asba(iProducts.DataCollector.plugins.DataMaps
ObjectMap
p1502
(dp1503
g8
I2
sg9
S'00:03:31:7D:5C:00'
p1504
sg10
g11
sg12
g13
sg14
S''
sg16
S'TenGigabitEthernet6/8'
p1505
sg18
I2
sg19
S'ethernetCsmacd_64'
p1506
sg21
I1500
sg22
S''
sg23
I3
sg24
g1505
sg25
I315
sg26
(lp1507
sg29
L3313L
sg30
S'TenGigabitEthernet6_8'
p1508
sg31
(lp1509
g8
ag9
ag14
ag18
ag29
ag21
ag23
ag33
ag25
ag19
ag30
ag12
ag10
ag22
ag24
ag16
ag26
asba(iProducts.DataCollector.plugins.DataMaps
ObjectMap
p1510
(dp1511
g8
I1
sg9
S'00:03:31:7D:5C:00'
p1512
sg10
g11
sg12
g13
sg14
S''
sg16
S'unrouted VLAN 2415'
p1513
sg18
I1
sg19
S'propVirtual_64'
p1514
sg21
I1500
sg22
S''
sg23
I0
sg24
g1513
sg25
I229
sg26
(lp1515
sg29
L1737L
sg30
g1513
sg31
(lp1516
g8
ag9
ag14
ag18
ag29
ag21
ag23
ag33
ag25
ag19
ag30
ag12
ag10
ag22
ag24
ag16
ag26
asba(iProducts.DataCollector.plugins.DataMaps
ObjectMap
p1517
(dp1518
g8
I1
sg9
S'00:03:31:7D:5C:00'
p1519
sg10
g11
sg12
g13
sg14
S''
sg16
S'unrouted VLAN 2414'
p1520
sg18
I1
sg19
S'propVirtual_64'
p1521
sg21
I1500
sg22
S''
sg23
I0
sg24
g1520
sg25
I228
sg26
(lp1522
sg29
L355L
sg30
g1520
sg31
(lp1523
g8
ag9
ag14
ag18
ag29
ag21
ag23
ag33
ag25
ag19
ag30
ag12
ag10
ag22
ag24
ag16
ag26
asba(iProducts.DataCollector.plugins.DataMaps
ObjectMap
p1524
(dp1525
g8
I1
sg9
S'00:03:31:7D:5C:00'
p1526
sg10
g11
sg12
g13
sg14
S''
sg16
S'unrouted VLAN 2413'
p1527
sg18
I1
sg19
S'propVirtual_64'
p1528
sg21
I1500
sg22
S''
sg23
I0
sg24
g1527
sg25
I224
sg26
(lp1529
sg29
L280L
sg30
g1527
sg31
(lp1530
g8
ag9
ag14
ag18
ag29
ag21
ag23
ag33
ag25
ag19
ag30
ag12
ag10
ag22
ag24
ag16
ag26
asba(iProducts.DataCollector.plugins.DataMaps
ObjectMap
p1531
(dp1532
g8
I1
sg9
S'00:03:31:7D:5C:00'
p1533
sg10
g11
sg12
g13
sg14
S''
sg16
S'unrouted VLAN 2412'
p1534
sg18
I1
sg19
S'propVirtual_64'
p1535
sg21
I1500
sg22
S''
sg23
I0
sg24
g1534
sg25
I222
sg26
(lp1536
sg29
L1902L
sg30
g1534
sg31
(lp1537
g8
ag9
ag14
ag18
ag29
ag21
ag23
ag33
ag25
ag19
ag30
ag12
ag10
ag22
ag24
ag16
ag26
asba(iProducts.DataCollector.plugins.DataMaps
ObjectMap
p1538
(dp1539
g8
I1
sg9
S'00:03:31:7D:5C:00'
p1540
sg10
g11
sg12
g13
sg14
S''
sg16
S'unrouted VLAN 2400'
p1541
sg18
I1
sg19
S'propVirtual_64'
p1542
sg21
I1500
sg22
S''
sg23
I0
sg24
g1541
sg25
I220
sg26
(lp1543
sg29
L573L
sg30
g1541
sg31
(lp1544
g8
ag9
ag14
ag18
ag29
ag21
ag23
ag33
ag25
ag19
ag30
ag12
ag10
ag22
ag24
ag16
ag26
asba(iProducts.DataCollector.plugins.DataMaps
ObjectMap
p1545
(dp1546
g8
I2
sg9
S'00:03:31:7D:5C:00'
p1547
sg10
g11
sg12
g13
sg14
S''
sg16
S'GigabitEthernet1/11'
p1548
sg18
I2
sg19
S'ethernetCsmacd_64'
p1549
sg21
I1500
sg22
S''
sg23
I3
sg24
g1548
sg25
I11
sg26
(lp1550
sg29
L99995015L
sg30
S'GigabitEthernet1_11'
p1551
sg31
(lp1552
g8
ag9
ag14
ag18
ag29
ag21
ag23
ag33
ag25
ag19
ag30
ag12
ag10
ag22
ag24
ag16
ag26
asba(iProducts.DataCollector.plugins.DataMaps
ObjectMap
p1553
(dp1554
g8
I2
sg9
S'00:03:31:7D:5C:00'
p1555
sg10
g11
sg12
g13
sg14
S''
sg16
S'GigabitEthernet1/13'
p1556
sg18
I2
sg19
S'ethernetCsmacd_64'
p1557
sg21
I1500
sg22
S''
sg23
I3
sg24
g1556
sg25
I13
sg26
(lp1558
sg29
L999998334L
sg30
S'GigabitEthernet1_13'
p1559
sg31
(lp1560
g8
ag9
ag14
ag18
ag29
ag21
ag23
ag33
ag25
ag19
ag30
ag12
ag10
ag22
ag24
ag16
ag26
asba(iProducts.DataCollector.plugins.DataMaps
ObjectMap
p1561
(dp1562
g8
I2
sg9
S'00:11:93:3A:9E:C3'
p1563
sg10
g11
sg12
g13
sg14
S'WIP - s0115pdv (Gig attached for TSM backups) VLAN 14'
p1564
sg16
S'GigabitEthernet1/12'
p1565
sg18
I2
sg19
S'ethernetCsmacd_64'
p1566
sg21
I1500
sg22
S''
sg23
I3
sg24
g1565
sg25
I12
sg26
(lp1567
sg29
L999997883L
sg30
S'GigabitEthernet1_12'
p1568
sg31
(lp1569
g8
ag9
ag14
ag18
ag29
ag21
ag23
ag33
ag25
ag19
ag30
ag12
ag10
ag22
ag24
ag16
ag26
asba(iProducts.DataCollector.plugins.DataMaps
ObjectMap
p1570
(dp1571
g8
I2
sg9
S'00:11:93:3A:9E:C6'
p1572
sg10
g11
sg12
g13
sg14
S''
sg16
S'GigabitEthernet1/15'
p1573
sg18
I2
sg19
S'ethernetCsmacd_64'
p1574
sg21
I1500
sg22
S''
sg23
I3
sg24
g1573
sg25
I15
sg26
(lp1575
sg29
L1000000695L
sg30
S'GigabitEthernet1_15'
p1576
sg31
(lp1577
g8
ag9
ag14
ag18
ag29
ag21
ag23
ag33
ag25
ag19
ag30
ag12
ag10
ag22
ag24
ag16
ag26
asba(iProducts.DataCollector.plugins.DataMaps
ObjectMap
p1578
(dp1579
g8
I2
sg9
S'00:03:31:7D:5C:00'
p1580
sg10
g11
sg12
g13
sg14
S''
sg16
S'GigabitEthernet1/14'
p1581
sg18
I2
sg19
S'ethernetCsmacd_64'
p1582
sg21
I1500
sg22
S''
sg23
I3
sg24
g1581
sg25
I14
sg26
(lp1583
sg29
L999997886L
sg30
S'GigabitEthernet1_14'
p1584
sg31
(lp1585
g8
ag9
ag14
ag18
ag29
ag21
ag23
ag33
ag25
ag19
ag30
ag12
ag10
ag22
ag24
ag16
ag26
asba(iProducts.DataCollector.plugins.DataMaps
ObjectMap
p1586
(dp1587
g8
I2
sg9
S'00:03:31:7D:5C:00'
p1588
sg10
g11
sg12
g13
sg14
S''
sg16
S'GigabitEthernet1/17'
p1589
sg18
I2
sg19
S'ethernetCsmacd_64'
p1590
sg21
I1500
sg22
S''
sg23
I3
sg24
g1589
sg25
I17
sg26
(lp1591
sg29
L999997442L
sg30
S'GigabitEthernet1_17'
p1592
sg31
(lp1593
g8
ag9
ag14
ag18
ag29
ag21
ag23
ag33
ag25
ag19
ag30
ag12
ag10
ag22
ag24
ag16
ag26
asba(iProducts.DataCollector.plugins.DataMaps
ObjectMap
p1594
(dp1595
g8
I1
sg9
S'00:11:93:3A:9E:CA'
p1596
sg10
g11
sg12
g13
sg14
S'WIP f4030bdc-nic1  Filer for ISCSI access'
p1597
sg16
S'GigabitEthernet1/19'
p1598
sg18
I2
sg19
S'ethernetCsmacd_64'
p1599
sg21
I1500
sg22
S''
sg23
I3
sg24
g1598
sg25
I19
sg26
(lp1600
sg29
L1000000708L
sg30
S'GigabitEthernet1_19'
p1601
sg31
(lp1602
g8
ag9
ag14
ag18
ag29
ag21
ag23
ag33
ag25
ag19
ag30
ag12
ag10
ag22
ag24
ag16
ag26
asba(iProducts.DataCollector.plugins.DataMaps
ObjectMap
p1603
(dp1604
g8
I2
sg9
S'00:03:31:7D:5C:00'
p1605
sg10
g11
sg12
g13
sg14
S''
sg16
S'GigabitEthernet1/18'
p1606
sg18
I2
sg19
S'ethernetCsmacd_64'
p1607
sg21
I1500
sg22
S''
sg23
I3
sg24
g1606
sg25
I18
sg26
(lp1608
sg29
L999999847L
sg30
S'GigabitEthernet1_18'
p1609
sg31
(lp1610
g8
ag9
ag14
ag18
ag29
ag21
ag23
ag33
ag25
ag19
ag30
ag12
ag10
ag22
ag24
ag16
ag26
asba(iProducts.DataCollector.plugins.DataMaps
ObjectMap
p1611
(dp1612
g8
I2
sg9
S'00:03:31:7D:5C:00'
p1613
sg10
g11
sg12
g13
sg14
S''
sg16
S'TenGigabitEthernet6/7'
p1614
sg18
I2
sg19
S'ethernetCsmacd_64'
p1615
sg21
I1500
sg22
S''
sg23
I3
sg24
g1614
sg25
I314
sg26
(lp1616
sg29
L605L
sg30
S'TenGigabitEthernet6_7'
p1617
sg31
(lp1618
g8
ag9
ag14
ag18
ag29
ag21
ag23
ag33
ag25
ag19
ag30
ag12
ag10
ag22
ag24
ag16
ag26
asba(iProducts.DataCollector.plugins.DataMaps
ObjectMap
p1619
(dp1620
g8
I1
sg9
S'00:0F:F7:BE:AF:89'
p1621
sg10
g11
sg12
g13
sg14
S'DC SER PDV_CSM_FT_VLAN AUTO RDNT - rmpg4bdc to rmpg5bdc (1/2,5/'
p1622
sg16
S'Port-channel3'
p1623
sg18
I1
sg19
S'propVirtual_64'
p1624
sg21
I1500
sg22
S''
sg23
I0
sg24
g1623
sg25
I110
sg26
(lp1625
sg29
L1999999122L
sg30
g1623
sg31
(lp1626
g8
ag9
ag14
ag18
ag29
ag21
ag23
ag33
ag25
ag19
ag30
ag12
ag10
ag22
ag24
ag16
ag26
asba(iProducts.DataCollector.plugins.DataMaps
ObjectMap
p1627
(dp1628
g8
I1
sg9
S'00:03:31:7D:5C:66'
p1629
sg10
g11
sg12
g13
sg14
S''
sg16
S'unrouted VLAN 102'
p1630
sg18
I1
sg19
S'propVirtual_64'
p1631
sg21
I1500
sg22
S''
sg23
I0
sg24
g1630
sg25
I151
sg26
(lp1632
sg29
L0L
sg30
g1630
sg31
(lp1633
g8
ag9
ag14
ag18
ag29
ag21
ag23
ag33
ag25
ag19
ag30
ag12
ag10
ag22
ag24
ag16
ag26
asba(iProducts.DataCollector.plugins.DataMaps
ObjectMap
p1634
(dp1635
g8
I1
sg9
S'00:03:31:7D:5C:65'
p1636
sg10
g11
sg12
g13
sg14
S''
sg16
S'unrouted VLAN 101'
p1637
sg18
I1
sg19
S'propVirtual_64'
p1638
sg21
I1500
sg22
S''
sg23
I0
sg24
g1637
sg25
I150
sg26
(lp1639
sg29
L1203L
sg30
g1637
sg31
(lp1640
g8
ag9
ag14
ag18
ag29
ag21
ag23
ag33
ag25
ag19
ag30
ag12
ag10
ag22
ag24
ag16
ag26
asba(iProducts.DataCollector.plugins.DataMaps
ObjectMap
p1641
(dp1642
g8
I1
sg9
S'00:03:31:7D:5F:20'
p1643
sg10
g11
sg12
g13
sg14
S''
sg16
S'unrouted VLAN 800'
p1644
sg18
I1
sg19
S'propVirtual_64'
p1645
sg21
I1500
sg22
S''
sg23
I0
sg24
g1644
sg25
I153
sg26
(lp1646
sg29
L1156L
sg30
g1644
sg31
(lp1647
g8
ag9
ag14
ag18
ag29
ag21
ag23
ag33
ag25
ag19
ag30
ag12
ag10
ag22
ag24
ag16
ag26
asba(iProducts.DataCollector.plugins.DataMaps
ObjectMap
p1648
(dp1649
g8
I1
sg9
S'00:03:31:7D:5C:67'
p1650
sg10
g11
sg12
g13
sg14
S''
sg16
S'unrouted VLAN 103'
p1651
sg18
I1
sg19
S'propVirtual_64'
p1652
sg21
I1500
sg22
S''
sg23
I0
sg24
g1651
sg25
I152
sg26
(lp1653
sg29
L523L
sg30
g1651
sg31
(lp1654
g8
ag9
ag14
ag18
ag29
ag21
ag23
ag33
ag25
ag19
ag30
ag12
ag10
ag22
ag24
ag16
ag26
asba(iProducts.DataCollector.plugins.DataMaps
ObjectMap
p1655
(dp1656
g8
I1
sg9
S'00:03:31:7D:5F:52'
p1657
sg10
g11
sg12
g13
sg14
S''
sg16
S'unrouted VLAN 850'
p1658
sg18
I1
sg19
S'propVirtual_64'
p1659
sg21
I1500
sg22
S''
sg23
I0
sg24
g1658
sg25
I155
sg26
(lp1660
sg29
L1064L
sg30
g1658
sg31
(lp1661
g8
ag9
ag14
ag18
ag29
ag21
ag23
ag33
ag25
ag19
ag30
ag12
ag10
ag22
ag24
ag16
ag26
asba(iProducts.DataCollector.plugins.DataMaps
ObjectMap
p1662
(dp1663
g8
I1
sg9
S'00:03:31:7D:5F:21'
p1664
sg10
g11
sg12
g13
sg14
S''
sg16
S'unrouted VLAN 801'
p1665
sg18
I1
sg19
S'propVirtual_64'
p1666
sg21
I1500
sg22
S''
sg23
I0
sg24
g1665
sg25
I154
sg26
(lp1667
sg29
L1271L
sg30
g1665
sg31
(lp1668
g8
ag9
ag14
ag18
ag29
ag21
ag23
ag33
ag25
ag19
ag30
ag12
ag10
ag22
ag24
ag16
ag26
asba(iProducts.DataCollector.plugins.DataMaps
ObjectMap
p1669
(dp1670
g8
I1
sg9
S'00:03:31:7D:5F:AD'
p1671
sg10
g11
sg12
g13
sg14
S''
sg16
S'unrouted VLAN 941'
p1672
sg18
I1
sg19
S'propVirtual_64'
p1673
sg21
I1500
sg22
S''
sg23
I0
sg24
g1672
sg25
I157
sg26
(lp1674
sg29
L2611L
sg30
g1672
sg31
(lp1675
g8
ag9
ag14
ag18
ag29
ag21
ag23
ag33
ag25
ag19
ag30
ag12
ag10
ag22
ag24
ag16
ag26
asba(iProducts.DataCollector.plugins.DataMaps
ObjectMap
p1676
(dp1677
g8
I1
sg9
S'00:03:31:7D:5F:AC'
p1678
sg10
g11
sg12
g13
sg14
S''
sg16
S'unrouted VLAN 940'
p1679
sg18
I1
sg19
S'propVirtual_64'
p1680
sg21
I1500
sg22
S''
sg23
I0
sg24
g1679
sg25
I156
sg26
(lp1681
sg29
L1195L
sg30
g1679
sg31
(lp1682
g8
ag9
ag14
ag18
ag29
ag21
ag23
ag33
ag25
ag19
ag30
ag12
ag10
ag22
ag24
ag16
ag26
asba(iProducts.DataCollector.plugins.DataMaps
ObjectMap
p1683
(dp1684
g8
I1
sg9
S'00:03:31:7D:5F:AF'
p1685
sg10
g11
sg12
g13
sg14
S''
sg16
S'unrouted VLAN 943'
p1686
sg18
I1
sg19
S'propVirtual_64'
p1687
sg21
I1500
sg22
S''
sg23
I0
sg24
g1686
sg25
I159
sg26
(lp1688
sg29
L176L
sg30
g1686
sg31
(lp1689
g8
ag9
ag14
ag18
ag29
ag21
ag23
ag33
ag25
ag19
ag30
ag12
ag10
ag22
ag24
ag16
ag26
asba(iProducts.DataCollector.plugins.DataMaps
ObjectMap
p1690
(dp1691
g8
I1
sg9
S'00:03:31:7D:5F:AE'
p1692
sg10
g11
sg12
g13
sg14
S''
sg16
S'unrouted VLAN 942'
p1693
sg18
I1
sg19
S'propVirtual_64'
p1694
sg21
I1500
sg22
S''
sg23
I0
sg24
g1693
sg25
I158
sg26
(lp1695
sg29
L3329L
sg30
g1693
sg31
(lp1696
g8
ag9
ag14
ag18
ag29
ag21
ag23
ag33
ag25
ag19
ag30
ag12
ag10
ag22
ag24
ag16
ag26
asba(iProducts.DataCollector.plugins.DataMaps
ObjectMap
p1697
(dp1698
g8
I1
sg9
S'00:11:92:99:60:4B'
p1699
sg10
g11
sg12
g13
sg14
S'DC SERV X02G1CBDC AUTO RDNT - RMPG4BDC TE4/4  TO (ETHERCHANNEL'
p1700
sg16
S'TenGigabitEthernet4/4'
p1701
sg18
I1
sg19
S'ethernetCsmacd_64'
p1702
sg21
I1500
sg22
S''
sg23
I3
sg24
g1701
sg25
I238
sg26
(lp1703
sg29
L1833L
sg30
S'TenGigabitEthernet4_4'
p1704
sg31
(lp1705
g8
ag9
ag14
ag18
ag29
ag21
ag23
ag33
ag25
ag19
ag30
ag12
ag10
ag22
ag24
ag16
ag26
asba(iProducts.DataCollector.plugins.DataMaps
ObjectMap
p1706
(dp1707
g8
I1
sg9
S'00:11:93:3A:50:43'
p1708
sg10
g11
sg12
g13
sg14
S'DC SERV X02G0CBDC AUTO RDNT - RMPG4BDC TE3/4  TO (ETHERCHANNEL'
p1709
sg16
S'TenGigabitEthernet3/4'
p1710
sg18
I1
sg19
S'ethernetCsmacd_64'
p1711
sg21
I1500
sg22
S''
sg23
I3
sg24
g1710
sg25
I234
sg26
(lp1712
sg29
L1361L
sg30
S'TenGigabitEthernet3_4'
p1713
sg31
(lp1714
g8
ag9
ag14
ag18
ag29
ag21
ag23
ag33
ag25
ag19
ag30
ag12
ag10
ag22
ag24
ag16
ag26
asba(iProducts.DataCollector.plugins.DataMaps
ObjectMap
p1715
(dp1716
g8
I1
sg9
S'00:11:92:99:60:48'
p1717
sg10
g11
sg12
g13
sg14
S'DC CORE RMPG5BDC AUTO RDNT - rmpg4bdc t4/1 to (etherchannel por'
p1718
sg16
S'TenGigabitEthernet4/1'
p1719
sg18
I1
sg19
S'ethernetCsmacd_64'
p1720
sg21
I1500
sg22
S''
sg23
I3
sg24
g1719
sg25
I235
sg26
(lp1721
sg29
L1804L
sg30
S'TenGigabitEthernet4_1'
p1722
sg31
(lp1723
g8
ag9
ag14
ag18
ag29
ag21
ag23
ag33
ag25
ag19
ag30
ag12
ag10
ag22
ag24
ag16
ag26
asba(iProducts.DataCollector.plugins.DataMaps
ObjectMap
p1724
(dp1725
g8
I1
sg9
S'00:03:31:7D:5C:00'
p1726
sg10
g11
sg12
g13
sg14
S'JIDP01TPBDC-SPAN-ETH4'
p1727
sg16
S'TenGigabitEthernet4/3'
p1728
sg18
I2
sg19
S'ethernetCsmacd_64'
p1729
sg21
I1500
sg22
S''
sg23
I3
sg24
g1728
sg25
I237
sg26
(lp1730
sg29
L93L
sg30
S'TenGigabitEthernet4_3'
p1731
sg31
(lp1732
g8
ag9
ag14
ag18
ag29
ag21
ag23
ag33
ag25
ag19
ag30
ag12
ag10
ag22
ag24
ag16
ag26
asba(iProducts.DataCollector.plugins.DataMaps
ObjectMap
p1733
(dp1734
g8
I1
sg9
S'00:03:31:7D:5C:00'
p1735
sg10
g11
sg12
g13
sg14
S''
sg16
S'unrouted VLAN 2416'
p1736
sg18
I1
sg19
S'propVirtual_64'
p1737
sg21
I1500
sg22
S''
sg23
I0
sg24
g1736
sg25
I230
sg26
(lp1738
sg29
L641L
sg30
g1736
sg31
(lp1739
g8
ag9
ag14
ag18
ag29
ag21
ag23
ag33
ag25
ag19
ag30
ag12
ag10
ag22
ag24
ag16
ag26
asba(iProducts.DataCollector.plugins.DataMaps
ObjectMap
p1740
(dp1741
g8
I1
sg9
S'00:11:93:3A:50:40'
p1742
sg10
g11
sg12
g13
sg14
S'DC CORE RMPG5BDC AUTO RDNT - rmpg4bdc t3/1 to (etherchannel por'
p1743
sg16
S'TenGigabitEthernet3/1'
p1744
sg18
I1
sg19
S'ethernetCsmacd_64'
p1745
sg21
I1500
sg22
S''
sg23
I3
sg24
g1744
sg25
I231
sg26
(lp1746
sg29
L526L
sg30
S'TenGigabitEthernet3_1'
p1747
sg31
(lp1748
g8
ag9
ag14
ag18
ag29
ag21
ag23
ag33
ag25
ag19
ag30
ag12
ag10
ag22
ag24
ag16
ag26
asba(iProducts.DataCollector.plugins.DataMaps
ObjectMap
p1749
(dp1750
g8
I1
sg9
S'00:11:93:3A:50:42'
p1751
sg10
g11
sg12
g13
sg14
S'DC COR RSRXG0BDC RDNT AUTO - RMPG4BDC TenG3/3 to RSRXG0BDC XE-0'
p1752
sg16
S'TenGigabitEthernet3/3'
p1753
sg18
I1
sg19
S'ethernetCsmacd_64'
p1754
sg21
I1500
sg22
S''
sg23
I3
sg24
g1753
sg25
I233
sg26
(lp1755
sg29
L2043L
sg30
S'TenGigabitEthernet3_3'
p1756
sg31
(lp1757
g8
ag9
ag14
ag18
ag29
ag21
ag23
ag33
ag25
ag19
ag30
ag12
ag10
ag22
ag24
ag16
ag26
asba(iProducts.DataCollector.plugins.DataMaps
ObjectMap
p1758
(dp1759
g8
I1
sg9
S'00:11:93:3A:9E:B8'
p1760
sg10
g11
sg12
g13
sg14
S'DC SER X02G7EBDC AUTO RDNT - PDV Layer 2 rmpg4bdc G1/1 to x02g7'
p1761
sg16
S'GigabitEthernet1/1'
p1762
sg18
I1
sg19
S'ethernetCsmacd_64'
p1763
sg21
I1500
sg22
S''
sg23
I3
sg24
g1762
sg25
I1
sg26
(lp1764
sg29
L999997983L
sg30
S'GigabitEthernet1_1'
p1765
sg31
(lp1766
g8
ag9
ag14
ag18
ag29
ag21
ag23
ag33
ag25
ag19
ag30
ag12
ag10
ag22
ag24
ag16
ag26
asba(iProducts.DataCollector.plugins.DataMaps
ObjectMap
p1767
(dp1768
g8
I1
sg9
S'00:03:31:7D:5C:00'
p1769
sg10
g11
sg12
g13
sg14
S''
sg16
S'unrouted VLAN 2622'
p1770
sg18
I1
sg19
S'propVirtual_64'
p1771
sg21
I1500
sg22
S''
sg23
I0
sg24
g1770
sg25
I323
sg26
(lp1772
sg29
L872L
sg30
g1770
sg31
(lp1773
g8
ag9
ag14
ag18
ag29
ag21
ag23
ag33
ag25
ag19
ag30
ag12
ag10
ag22
ag24
ag16
ag26
asba(iProducts.DataCollector.plugins.DataMaps
ObjectMap
p1774
(dp1775
g8
I1
sg9
S'00:03:31:7D:5C:00'
p1776
sg10
g11
sg12
g13
sg14
S''
sg16
S'unrouted VLAN 3604'
p1777
sg18
I1
sg19
S'propVirtual_64'
p1778
sg21
I1500
sg22
S''
sg23
I0
sg24
g1777
sg25
I320
sg26
(lp1779
sg29
L3982L
sg30
g1777
sg31
(lp1780
g8
ag9
ag14
ag18
ag29
ag21
ag23
ag33
ag25
ag19
ag30
ag12
ag10
ag22
ag24
ag16
ag26
asba(iProducts.DataCollector.plugins.DataMaps
ObjectMap
p1781
(dp1782
g8
I1
sg9
S'00:03:31:7D:5C:00'
p1783
sg10
g11
sg12
g13
sg14
S''
sg16
S'unrouted VLAN 2604'
p1784
sg18
I1
sg19
S'propVirtual_64'
p1785
sg21
I1500
sg22
S''
sg23
I0
sg24
g1784
sg25
I321
sg26
(lp1786
sg29
L1385L
sg30
g1784
sg31
(lp1787
g8
ag9
ag14
ag18
ag29
ag21
ag23
ag33
ag25
ag19
ag30
ag12
ag10
ag22
ag24
ag16
ag26
asba(iProducts.DataCollector.plugins.DataMaps
ObjectMap
p1788
(dp1789
g8
I2
sg9
S'00:11:93:3A:9E:BC'
p1790
sg10
g11
sg12
g13
sg14
S'DC CORE RMPG5BDC AUTO RDNT - rmpg4bdc G1/5 (etherchannel ports'
p1791
sg16
S'GigabitEthernet1/5'
p1792
sg18
I2
sg19
S'ethernetCsmacd_64'
p1793
sg21
I1500
sg22
S''
sg23
I3
sg24
g1792
sg25
I5
sg26
(lp1794
sg29
L999999634L
sg30
S'GigabitEthernet1_5'
p1795
sg31
(lp1796
g8
ag9
ag14
ag18
ag29
ag21
ag23
ag33
ag25
ag19
ag30
ag12
ag10
ag22
ag24
ag16
ag26
asba(iProducts.DataCollector.plugins.DataMaps
ObjectMap
p1797
(dp1798
g8
I1
sg9
S'00:00:00:00:00:00'
p1799
sg10
g11
sg12
g13
sg14
S''
sg16
S'Control Plane Interface'
p1800
sg18
I1
sg19
S'Other_64'
p1801
sg21
I0
sg22
S''
sg23
I0
sg24
g1800
sg25
I327
sg26
(lp1802
sg29
L683L
sg30
g1800
sg31
(lp1803
g8
ag9
ag14
ag18
ag29
ag21
ag23
ag33
ag25
ag19
ag30
ag12
ag10
ag22
ag24
ag16
ag26
asba(iProducts.DataCollector.plugins.DataMaps
ObjectMap
p1804
(dp1805
g8
I1
sg9
S'00:03:31:7D:5C:00'
p1806
sg10
g11
sg12
g13
sg14
S''
sg16
S'unrouted VLAN 2402'
p1807
sg18
I1
sg19
S'propVirtual_64'
p1808
sg21
I1500
sg22
S''
sg23
I0
sg24
g1807
sg25
I324
sg26
(lp1809
sg29
L645L
sg30
g1807
sg31
(lp1810
g8
ag9
ag14
ag18
ag29
ag21
ag23
ag33
ag25
ag19
ag30
ag12
ag10
ag22
ag24
ag16
ag26
asba(iProducts.DataCollector.plugins.DataMaps
ObjectMap
p1811
(dp1812
g8
I1
sg9
S''
sg10
g11
sg12
g13
sg14
S''
sg16
S'SPAN RP Interface'
p1813
sg18
I1
sg19
S'Other_64'
p1814
sg21
I1514
sg22
S''
sg23
I0
sg24
g1813
sg25
I325
sg26
(lp1815
sg29
L443L
sg30
g1813
sg31
(lp1816
g8
ag9
ag14
ag18
ag29
ag21
ag23
ag33
ag25
ag19
ag30
ag12
ag10
ag22
ag24
ag16
ag26
asba(iProducts.DataCollector.plugins.DataMaps
ObjectMap
p1817
(dp1818
g8
I2
sg9
S'00:03:31:7D:5C:00'
p1819
sg10
g11
sg12
g13
sg14
S''
sg16
S'GigabitEthernet1/9'
p1820
sg18
I2
sg19
S'ethernetCsmacd_64'
p1821
sg21
I1500
sg22
S''
sg23
I3
sg24
g1820
sg25
I9
sg26
(lp1822
sg29
L999997340L
sg30
S'GigabitEthernet1_9'
p1823
sg31
(lp1824
g8
ag9
ag14
ag18
ag29
ag21
ag23
ag33
ag25
ag19
ag30
ag12
ag10
ag22
ag24
ag16
ag26
asba(iProducts.DataCollector.plugins.DataMaps
ObjectMap
p1825
(dp1826
g8
I1
sg9
S'00:03:31:7D:5C:00'
p1827
sg10
g11
sg12
g13
sg14
S''
sg16
S'NDE_vlan1014'
p1828
sg18
I1
sg19
S'propVirtual_64'
p1829
sg21
I1500
sg22
S''
sg23
I0
sg24
g1828
sg25
I328
sg26
(lp1830
sg29
L1000002175L
sg30
g1828
sg31
(lp1831
g8
ag9
ag14
ag18
ag29
ag21
ag23
ag33
ag25
ag19
ag30
ag12
ag10
ag22
ag24
ag16
ag26
asba(iProducts.DataCollector.plugins.DataMaps
ObjectMap
p1832
(dp1833
g8
I1
sg9
S'00:03:31:7D:5C:06'
p1834
sg10
g11
sg12
g13
sg14
S''
sg16
S'unrouted VLAN 6'
p1835
sg18
I1
sg19
S'propVirtual_64'
p1836
sg21
I1500
sg22
S''
sg23
I0
sg24
g1835
sg25
I146
sg26
(lp1837
sg29
L648L
sg30
g1835
sg31
(lp1838
g8
ag9
ag14
ag18
ag29
ag21
ag23
ag33
ag25
ag19
ag30
ag12
ag10
ag22
ag24
ag16
ag26
asba(iProducts.DataCollector.plugins.DataMaps
ObjectMap
p1839
(dp1840
g8
I1
sg9
S'00:03:31:7D:5C:CA'
p1841
sg10
g11
sg12
g13
sg14
S''
sg16
S'unrouted VLAN 202'
p1842
sg18
I1
sg19
S'propVirtual_64'
p1843
sg21
I1500
sg22
S''
sg23
I0
sg24
g1842
sg25
I200
sg26
(lp1844
sg29
L138L
sg30
g1842
sg31
(lp1845
g8
ag9
ag14
ag18
ag29
ag21
ag23
ag33
ag25
ag19
ag30
ag12
ag10
ag22
ag24
ag16
ag26
asba(iProducts.DataCollector.plugins.DataMaps
ObjectMap
p1846
(dp1847
g8
I1
sg9
S'00:03:31:7D:5C:04'
p1848
sg10
g11
sg12
g13
sg14
S''
sg16
S'unrouted VLAN 4'
p1849
sg18
I1
sg19
S'propVirtual_64'
p1850
sg21
I1500
sg22
S''
sg23
I0
sg24
g1849
sg25
I144
sg26
(lp1851
sg29
L2296L
sg30
g1849
sg31
(lp1852
g8
ag9
ag14
ag18
ag29
ag21
ag23
ag33
ag25
ag19
ag30
ag12
ag10
ag22
ag24
ag16
ag26
asba(iProducts.DataCollector.plugins.DataMaps
ObjectMap
p1853
(dp1854
g8
I1
sg9
S'00:03:31:7D:5C:00'
p1855
sg10
g11
sg12
g13
sg14
S''
sg16
S'unrouted VLAN 2000'
p1856
sg18
I1
sg19
S'propVirtual_64'
p1857
sg21
I1500
sg22
S''
sg23
I0
sg24
g1856
sg25
I205
sg26
(lp1858
sg29
L541L
sg30
g1856
sg31
(lp1859
g8
ag9
ag14
ag18
ag29
ag21
ag23
ag33
ag25
ag19
ag30
ag12
ag10
ag22
ag24
ag16
ag26
asba(iProducts.DataCollector.plugins.DataMaps
ObjectMap
p1860
(dp1861
g8
I1
sg9
S'00:03:31:7D:5F:E7'
p1862
sg10
g11
sg12
g13
sg14
S''
sg16
S'unrouted VLAN 999'
p1863
sg18
I1
sg19
S'propVirtual_64'
p1864
sg21
I1500
sg22
S''
sg23
I0
sg24
g1863
sg25
I204
sg26
(lp1865
sg29
L710L
sg30
g1863
sg31
(lp1866
g8
ag9
ag14
ag18
ag29
ag21
ag23
ag33
ag25
ag19
ag30
ag12
ag10
ag22
ag24
ag16
ag26
asba(iProducts.DataCollector.plugins.DataMaps
ObjectMap
p1867
(dp1868
g8
I1
sg9
S'00:03:31:7D:5C:97'
p1869
sg10
g11
sg12
g13
sg14
S''
sg16
S'unrouted VLAN 151'
p1870
sg18
I1
sg19
S'propVirtual_64'
p1871
sg21
I1500
sg22
S''
sg23
I0
sg24
g1870
sg25
I207
sg26
(lp1872
sg29
L374L
sg30
g1870
sg31
(lp1873
g8
ag9
ag14
ag18
ag29
ag21
ag23
ag33
ag25
ag19
ag30
ag12
ag10
ag22
ag24
ag16
ag26
asba(iProducts.DataCollector.plugins.DataMaps
ObjectMap
p1874
(dp1875
g8
I1
sg9
S'00:03:31:7D:5C:96'
p1876
sg10
g11
sg12
g13
sg14
S''
sg16
S'unrouted VLAN 150'
p1877
sg18
I1
sg19
S'propVirtual_64'
p1878
sg21
I1500
sg22
S''
sg23
I0
sg24
g1877
sg25
I206
sg26
(lp1879
sg29
L1109L
sg30
g1877
sg31
(lp1880
g8
ag9
ag14
ag18
ag29
ag21
ag23
ag33
ag25
ag19
ag30
ag12
ag10
ag22
ag24
ag16
ag26
asba(iProducts.DataCollector.plugins.DataMaps
ObjectMap
p1881
(dp1882
g8
I1
sg9
S'00:03:31:7D:5F:CC'
p1883
sg10
g11
sg12
g13
sg14
S''
sg16
S'unrouted VLAN 972'
p1884
sg18
I1
sg19
S'propVirtual_64'
p1885
sg21
I1500
sg22
S''
sg23
I0
sg24
g1884
sg25
I208
sg26
(lp1886
sg29
L1048L
sg30
g1884
sg31
(lp1887
g8
ag9
ag14
ag18
ag29
ag21
ag23
ag33
ag25
ag19
ag30
ag12
ag10
ag22
ag24
ag16
ag26
asba(iProducts.DataCollector.plugins.DataMaps
ObjectMap
p1888
(dp1889
g8
I1
sg9
S'00:03:31:7D:5C:63'
p1890
sg10
g11
sg12
g13
sg14
S''
sg16
S'unrouted VLAN 99'
p1891
sg18
I1
sg19
S'propVirtual_64'
p1892
sg21
I1500
sg22
S''
sg23
I0
sg24
g1891
sg25
I149
sg26
(lp1893
sg29
L1424L
sg30
g1891
sg31
(lp1894
g8
ag9
ag14
ag18
ag29
ag21
ag23
ag33
ag25
ag19
ag30
ag12
ag10
ag22
ag24
ag16
ag26
asba(iProducts.DataCollector.plugins.DataMaps
ObjectMap
p1895
(dp1896
g8
I1
sg9
S'00:0F:F7:BE:AF:89'
p1897
sg10
g11
sg12
g13
sg14
S'DC CORE RMPG5BDC AUTO RDNT - rmpg4bdc g5/2 (etherchannel ports'
p1898
sg16
S'GigabitEthernet5/2'
p1899
sg18
I1
sg19
S'ethernetCsmacd_64'
p1900
sg21
I1500
sg22
S''
sg23
I3
sg24
g1899
sg25
I79
sg26
(lp1901
sg29
L1000001244L
sg30
S'GigabitEthernet5_2'
p1902
sg31
(lp1903
g8
ag9
ag14
ag18
ag29
ag21
ag23
ag33
ag25
ag19
ag30
ag12
ag10
ag22
ag24
ag16
ag26
asba(iProducts.DataCollector.plugins.DataMaps
ObjectMap
p1904
(dp1905
g8
I2
sg9
S'00:0F:F7:BE:AF:88'
p1906
sg10
g11
sg12
g13
sg14
S''
sg16
S'GigabitEthernet5/1'
p1907
sg18
I2
sg19
S'ethernetCsmacd_64'
p1908
sg21
I1500
sg22
S''
sg23
I3
sg24
g1907
sg25
I78
sg26
(lp1909
sg29
L999998369L
sg30
S'GigabitEthernet5_1'
p1910
sg31
(lp1911
g8
ag9
ag14
ag18
ag29
ag21
ag23
ag33
ag25
ag19
ag30
ag12
ag10
ag22
ag24
ag16
ag26
asba(iProducts.DataCollector.plugins.DataMaps
ObjectMap
p1912
(dp1913
g8
I1
sg9
S'00:03:31:7D:5C:68'
p1914
sg10
g11
sg12
g13
sg14
S''
sg16
S'unrouted VLAN 104'
p1915
sg18
I1
sg19
S'propVirtual_64'
p1916
sg21
I1500
sg22
S''
sg23
I0
sg24
g1915
sg25
I169
sg26
(lp1917
sg29
L1221L
sg30
g1915
sg31
(lp1918
g8
ag9
ag14
ag18
ag29
ag21
ag23
ag33
ag25
ag19
ag30
ag12
ag10
ag22
ag24
ag16
ag26
asba(iProducts.DataCollector.plugins.DataMaps
ObjectMap
p1919
(dp1920
g8
I1
sg9
S''
sg10
g11
sg12
g13
sg14
S''
sg16
S'SPAN SP Interface'
p1921
sg18
I1
sg19
S'Other_64'
p1922
sg21
I1514
sg22
S''
sg23
I0
sg24
g1921
sg25
I326
sg26
(lp1923
sg29
L1103L
sg30
g1921
sg31
(lp1924
g8
ag9
ag14
ag18
ag29
ag21
ag23
ag33
ag25
ag19
ag30
ag12
ag10
ag22
ag24
ag16
ag26
asba(iProducts.DataCollector.plugins.DataMaps
ObjectMap
p1925
(dp1926
g8
I1
sg9
S'00:03:31:7D:5C:00'
p1927
sg10
g11
sg12
g13
sg14
S''
sg16
S'unrouted VLAN 2464'
p1928
sg18
I1
sg19
S'propVirtual_64'
p1929
sg21
I1500
sg22
S''
sg23
I0
sg24
g1928
sg25
I266
sg26
(lp1930
sg29
L349L
sg30
g1928
sg31
(lp1931
g8
ag9
ag14
ag18
ag29
ag21
ag23
ag33
ag25
ag19
ag30
ag12
ag10
ag22
ag24
ag16
ag26
asbasS'relname'
p1932
S'interfaces'
p1933
sg12
g13
sS'parentId'
p1934
S''
sba.